	.file	"test_client.cpp"
	.text
.Ltext0:
	.cfi_sections	.debug_frame
	.section .rdata,"dr"
_ZStL19piecewise_construct:
	.space 1
	.section	.text$_ZnwyPv,"x"
	.linkonce discard
	.globl	_ZnwyPv
	.def	_ZnwyPv;	.scl	2;	.type	32;	.endef
	.seh_proc	_ZnwyPv
_ZnwyPv:
.LFB373:
	.file 1 "E:/Code_Lib/compilers/mingw64/lib/gcc/x86_64-w64-mingw32/8.1.0/include/c++/new"
	.loc 1 169 1
	.cfi_startproc
	pushq	%rbp
	.seh_pushreg	%rbp
	.cfi_def_cfa_offset 16
	.cfi_offset 6, -16
	movq	%rsp, %rbp
	.seh_setframe	%rbp, 0
	.cfi_def_cfa_register 6
	.seh_endprologue
	movq	%rcx, 16(%rbp)
	movq	%rdx, 24(%rbp)
	.loc 1 169 10
	movq	24(%rbp), %rax
	.loc 1 169 15
	popq	%rbp
	.cfi_restore 6
	.cfi_def_cfa 7, 8
	ret
	.cfi_endproc
.LFE373:
	.seh_endproc
	.text
	.def	_ZL6printfPKcz;	.scl	3;	.type	32;	.endef
	.seh_proc	_ZL6printfPKcz
_ZL6printfPKcz:
.LFB976:
	.file 2 "E:/Code_Lib/compilers/mingw64/x86_64-w64-mingw32/include/stdio.h"
	.loc 2 346 1
	.cfi_startproc
	pushq	%rbp
	.seh_pushreg	%rbp
	.cfi_def_cfa_offset 16
	.cfi_offset 6, -16
	pushq	%rbx
	.seh_pushreg	%rbx
	.cfi_def_cfa_offset 24
	.cfi_offset 3, -24
	subq	$56, %rsp
	.seh_stackalloc	56
	.cfi_def_cfa_offset 80
	leaq	128(%rsp), %rbp
	.seh_setframe	%rbp, 128
	.cfi_def_cfa 6, -48
	.seh_endprologue
	movq	%rcx, -48(%rbp)
	movq	%rdx, -40(%rbp)
	movq	%r8, -32(%rbp)
	movq	%r9, -24(%rbp)
	.loc 2 348 53
	leaq	-40(%rbp), %rax
	movq	%rax, -96(%rbp)
	.loc 2 349 30
	movq	-96(%rbp), %rbx
	movl	$1, %ecx
	movq	__imp___acrt_iob_func(%rip), %rax
	call	*%rax
.LVL0:
	movq	%rbx, %r8
	movq	-48(%rbp), %rdx
	movq	%rax, %rcx
	call	__mingw_vfprintf
	movl	%eax, -84(%rbp)
	.loc 2 351 10
	movl	-84(%rbp), %eax
	.loc 2 352 1
	addq	$56, %rsp
	popq	%rbx
	.cfi_restore 3
	popq	%rbp
	.cfi_restore 6
	.cfi_def_cfa 7, -40
	ret
	.cfi_endproc
.LFE976:
	.seh_endproc
	.section	.text$_ZN2ps5pcall6ClientC1EPKNS0_5pcallEj,"x"
	.linkonce discard
	.align 2
	.globl	_ZN2ps5pcall6ClientC1EPKNS0_5pcallEj
	.def	_ZN2ps5pcall6ClientC1EPKNS0_5pcallEj;	.scl	2;	.type	32;	.endef
	.seh_proc	_ZN2ps5pcall6ClientC1EPKNS0_5pcallEj
_ZN2ps5pcall6ClientC1EPKNS0_5pcallEj:
.LFB1982:
	.file 3 "D:/Code-Lib/mmcar/controller/Modules/pcode/include/pcall_class.h"
	.loc 3 46 5
	.cfi_startproc
	pushq	%rbp
	.seh_pushreg	%rbp
	.cfi_def_cfa_offset 16
	.cfi_offset 6, -16
	movq	%rsp, %rbp
	.seh_setframe	%rbp, 0
	.cfi_def_cfa_register 6
	subq	$48, %rsp
	.seh_stackalloc	48
	.seh_endprologue
	movq	%rcx, 16(%rbp)
	movq	%rdx, 24(%rbp)
	movl	%r8d, 32(%rbp)
.LBB2:
	.loc 3 47 17
	movq	16(%rbp), %rax
	movq	24(%rbp), %rdx
	movq	%rdx, (%rax)
.LBB3:
	.loc 3 52 44
	movl	$384, %ecx
	call	_Znay
	movq	%rax, %rdx
	.loc 3 52 13
	movq	16(%rbp), %rax
	movq	%rdx, 8(%rax)
	.loc 3 53 16
	movq	16(%rbp), %rax
	movq	8(%rax), %rax
	.loc 3 53 15
	movl	$384, %r8d
	movl	$0, %edx
	movq	%rax, %rcx
	call	memset
.LBB4:
	.loc 3 54 18
	movl	$0, -4(%rbp)
.L7:
	.loc 3 54 24 discriminator 3
	movl	-4(%rbp), %eax
	cmpl	%eax, 32(%rbp)
	jbe	.L8
	.loc 3 56 39 discriminator 2
	movl	-4(%rbp), %eax
	leal	1(%rax), %ecx
	.loc 3 56 13 discriminator 2
	movq	16(%rbp), %rax
	movq	8(%rax), %r8
	.loc 3 56 21 discriminator 2
	movl	-4(%rbp), %eax
	movslq	%eax, %rdx
	movq	%rdx, %rax
	addq	%rax, %rax
	addq	%rdx, %rax
	salq	$3, %rax
	movq	%rax, %rdx
	movq	24(%rbp), %rax
	addq	%rdx, %rax
	.loc 3 56 23 discriminator 2
	movzbl	16(%rax), %eax
	movsbq	%al, %rax
	.loc 3 56 33 discriminator 2
	salq	$2, %rax
	addq	$-128, %rax
	addq	%r8, %rax
	.loc 3 56 39 discriminator 2
	movl	%ecx, %edx
	.loc 3 56 35 discriminator 2
	movl	%edx, (%rax)
	.loc 3 54 9 discriminator 2
	addl	$1, -4(%rbp)
	jmp	.L7
.L8:
.LBE4:
.LBE3:
.LBE2:
	.loc 3 58 5
	nop
	addq	$48, %rsp
	popq	%rbp
	.cfi_restore 6
	.cfi_def_cfa 7, 8
	ret
	.cfi_endproc
.LFE1982:
	.seh_endproc
	.section	.text$_ZNK2ps5pcall6Client5parseERKNSt7__cxx1112basic_stringIcSt11char_traitsIcESaIcEEEPhi,"x"
	.linkonce discard
	.align 2
	.globl	_ZNK2ps5pcall6Client5parseERKNSt7__cxx1112basic_stringIcSt11char_traitsIcESaIcEEEPhi
	.def	_ZNK2ps5pcall6Client5parseERKNSt7__cxx1112basic_stringIcSt11char_traitsIcESaIcEEEPhi;	.scl	2;	.type	32;	.endef
	.seh_proc	_ZNK2ps5pcall6Client5parseERKNSt7__cxx1112basic_stringIcSt11char_traitsIcESaIcEEEPhi
_ZNK2ps5pcall6Client5parseERKNSt7__cxx1112basic_stringIcSt11char_traitsIcESaIcEEEPhi:
.LFB1983:
	.loc 3 67 9
	.cfi_startproc
	pushq	%rbp
	.seh_pushreg	%rbp
	.cfi_def_cfa_offset 16
	.cfi_offset 6, -16
	pushq	%rbx
	.seh_pushreg	%rbx
	.cfi_def_cfa_offset 24
	.cfi_offset 3, -24
	subq	$456, %rsp
	.seh_stackalloc	456
	.cfi_def_cfa_offset 480
	leaq	128(%rsp), %rbp
	.seh_setframe	%rbp, 128
	.cfi_def_cfa 6, 352
	.seh_endprologue
	movq	%rcx, 352(%rbp)
	movq	%rdx, 360(%rbp)
	movq	%r8, 368(%rbp)
	movl	%r9d, 376(%rbp)
	.loc 3 69 36
	movq	360(%rbp), %rdx
	leaq	-80(%rbp), %rax
	movl	$8, %r8d
	movq	%rax, %rcx
.LEHB0:
	call	_ZNSt7__cxx1119basic_istringstreamIcSt11char_traitsIcESaIcEEC1ERKNS_12basic_stringIcS2_S3_EESt13_Ios_Openmode
.LEHE0:
	.loc 3 72 16
	leaq	-81(%rbp), %rdx
	leaq	-80(%rbp), %rax
	movq	%rax, %rcx
.LEHB1:
	call	_ZStrsIcSt11char_traitsIcEERSt13basic_istreamIT_T0_ES6_RS3_
	.loc 3 74 30
	movq	352(%rbp), %rax
	movq	8(%rax), %rdx
	.loc 3 74 44
	movzbl	-81(%rbp), %eax
	movsbq	%al, %rax
	salq	$2, %rax
	addq	$-128, %rax
	addq	%rdx, %rax
	.loc 3 74 21
	movl	(%rax), %eax
	movl	%eax, 316(%rbp)
	.loc 3 75 9
	cmpl	$0, 316(%rbp)
	je	.L10
	.loc 3 77 34
	movq	368(%rbp), %rax
	movl	316(%rbp), %edx
	movl	%edx, (%rax)
	.loc 3 78 17
	addq	$4, 368(%rbp)
	.loc 3 80 20
	movq	352(%rbp), %rax
	movq	(%rax), %rdx
	.loc 3 80 29
	movl	316(%rbp), %eax
	subl	$1, %eax
	movl	%eax, %ecx
	.loc 3 80 31
	movq	%rcx, %rax
	addq	%rax, %rax
	addq	%rcx, %rax
	salq	$3, %rax
	addq	%rdx, %rax
	.loc 3 80 33
	movq	(%rax), %r9
	.loc 3 80 36
	movl	376(%rbp), %ecx
	movq	368(%rbp), %rdx
	leaq	-80(%rbp), %rax
	movl	%ecx, %r8d
	movq	%rax, %rcx
	call	*%r9
.LVL1:
.LEHE1:
	.loc 3 80 55
	addl	$4, %eax
	.loc 3 80 75
	movl	%eax, %ebx
	jmp	.L11
.L10:
	.loc 3 82 16
	movl	$0, %ebx
.L11:
	.loc 3 69 36
	leaq	-80(%rbp), %rax
	movq	%rax, %rcx
	call	_ZNSt7__cxx1119basic_istringstreamIcSt11char_traitsIcESaIcEED1Ev
	movl	%ebx, %eax
	jmp	.L15
.L14:
	movq	%rax, %rbx
	leaq	-80(%rbp), %rax
	movq	%rax, %rcx
	call	_ZNSt7__cxx1119basic_istringstreamIcSt11char_traitsIcESaIcEED1Ev
	movq	%rbx, %rax
	movq	%rax, %rcx
.LEHB2:
	call	_Unwind_Resume
.LEHE2:
.L15:
	.loc 3 83 5
	addq	$456, %rsp
	popq	%rbx
	.cfi_restore 3
	popq	%rbp
	.cfi_restore 6
	.cfi_def_cfa 7, -440
	ret
	.cfi_endproc
.LFE1983:
	.def	__gxx_personality_seh0;	.scl	2;	.type	32;	.endef
	.seh_handler	__gxx_personality_seh0, @unwind, @except
	.seh_handlerdata
.LLSDA1983:
	.byte	0xff
	.byte	0xff
	.byte	0x1
	.uleb128 .LLSDACSE1983-.LLSDACSB1983
.LLSDACSB1983:
	.uleb128 .LEHB0-.LFB1983
	.uleb128 .LEHE0-.LEHB0
	.uleb128 0
	.uleb128 0
	.uleb128 .LEHB1-.LFB1983
	.uleb128 .LEHE1-.LEHB1
	.uleb128 .L14-.LFB1983
	.uleb128 0
	.uleb128 .LEHB2-.LFB1983
	.uleb128 .LEHE2-.LEHB2
	.uleb128 0
	.uleb128 0
.LLSDACSE1983:
	.section	.text$_ZNK2ps5pcall6Client5parseERKNSt7__cxx1112basic_stringIcSt11char_traitsIcESaIcEEEPhi,"x"
	.linkonce discard
	.seh_endproc
	.section	.text$_ZNK2ps5pcall6Client8describeEc,"x"
	.linkonce discard
	.align 2
	.globl	_ZNK2ps5pcall6Client8describeEc
	.def	_ZNK2ps5pcall6Client8describeEc;	.scl	2;	.type	32;	.endef
	.seh_proc	_ZNK2ps5pcall6Client8describeEc
_ZNK2ps5pcall6Client8describeEc:
.LFB1984:
	.loc 3 88 17
	.cfi_startproc
	pushq	%rbp
	.seh_pushreg	%rbp
	.cfi_def_cfa_offset 16
	.cfi_offset 6, -16
	movq	%rsp, %rbp
	.seh_setframe	%rbp, 0
	.cfi_def_cfa_register 6
	subq	$16, %rsp
	.seh_stackalloc	16
	.seh_endprologue
	movq	%rcx, 16(%rbp)
	movl	%edx, %eax
	movb	%al, 24(%rbp)
	.loc 3 90 23
	movq	16(%rbp), %rax
	movq	8(%rax), %rdx
	.loc 3 90 37
	movsbq	24(%rbp), %rax
	salq	$2, %rax
	addq	$-128, %rax
	addq	%rdx, %rax
	.loc 3 90 14
	movl	(%rax), %eax
	movl	%eax, -4(%rbp)
	.loc 3 91 9
	cmpl	$0, -4(%rbp)
	je	.L17
	.loc 3 93 20
	movq	16(%rbp), %rax
	movq	(%rax), %rdx
	.loc 3 93 29
	movl	-4(%rbp), %eax
	subl	$1, %eax
	movl	%eax, %ecx
	.loc 3 93 31
	movq	%rcx, %rax
	addq	%rax, %rax
	addq	%rcx, %rax
	salq	$3, %rax
	addq	%rdx, %rax
	.loc 3 93 33
	movq	8(%rax), %rax
	jmp	.L18
.L17:
	.loc 3 95 16
	movl	$0, %eax
.L18:
	.loc 3 96 5
	addq	$16, %rsp
	popq	%rbp
	.cfi_restore 6
	.cfi_def_cfa 7, 8
	ret
	.cfi_endproc
.LFE1984:
	.seh_endproc
	.section	.text$_ZN2ps5pcall6Client9code_listERSt6vectorIcSaIcEE,"x"
	.linkonce discard
	.align 2
	.globl	_ZN2ps5pcall6Client9code_listERSt6vectorIcSaIcEE
	.def	_ZN2ps5pcall6Client9code_listERSt6vectorIcSaIcEE;	.scl	2;	.type	32;	.endef
	.seh_proc	_ZN2ps5pcall6Client9code_listERSt6vectorIcSaIcEE
_ZN2ps5pcall6Client9code_listERSt6vectorIcSaIcEE:
.LFB1986:
	.loc 3 114 10
	.cfi_startproc
	pushq	%rbp
	.seh_pushreg	%rbp
	.cfi_def_cfa_offset 16
	.cfi_offset 6, -16
	movq	%rsp, %rbp
	.seh_setframe	%rbp, 0
	.cfi_def_cfa_register 6
	subq	$48, %rsp
	.seh_stackalloc	48
	.seh_endprologue
	movq	%rcx, 16(%rbp)
	movq	%rdx, 24(%rbp)
.LBB5:
	.loc 3 116 18
	movl	$0, -4(%rbp)
.L22:
	.loc 3 116 24 discriminator 1
	cmpl	$95, -4(%rbp)
	jg	.L23
	.loc 3 118 17
	movq	16(%rbp), %rax
	movq	8(%rax), %rdx
	.loc 3 118 22
	movl	-4(%rbp), %eax
	cltq
	salq	$2, %rax
	addq	%rdx, %rax
	movl	(%rax), %eax
	.loc 3 118 13
	testl	%eax, %eax
	je	.L21
	.loc 3 118 56 discriminator 1
	movl	-4(%rbp), %eax
	addl	$32, %eax
	.loc 3 118 47 discriminator 1
	movb	%al, -5(%rbp)
	.loc 3 118 46 discriminator 1
	leaq	-5(%rbp), %rax
	movq	24(%rbp), %rcx
	movq	%rax, %rdx
	call	_ZNSt6vectorIcSaIcEE9push_backEOc
.L21:
	.loc 3 116 9 discriminator 2
	addl	$1, -4(%rbp)
	jmp	.L22
.L23:
.LBE5:
	.loc 3 120 5
	nop
	addq	$48, %rsp
	popq	%rbp
	.cfi_restore 6
	.cfi_def_cfa 7, 8
	ret
	.cfi_endproc
.LFE1986:
	.seh_endproc
	.text
	.def	_ZN12_GLOBAL__N_112__pcall_moveERNSt7__cxx1119basic_istringstreamIcSt11char_traitsIcESaIcEEEPhi;	.scl	3;	.type	32;	.endef
	.seh_proc	_ZN12_GLOBAL__N_112__pcall_moveERNSt7__cxx1119basic_istringstreamIcSt11char_traitsIcESaIcEEEPhi
_ZN12_GLOBAL__N_112__pcall_moveERNSt7__cxx1119basic_istringstreamIcSt11char_traitsIcESaIcEEEPhi:
.LFB1987:
	.file 4 "D:/Code-Lib/mmcar/controller/Modules/pcode/demo/table.h"
	.loc 4 24 74
	.cfi_startproc
	pushq	%rbp
	.seh_pushreg	%rbp
	.cfi_def_cfa_offset 16
	.cfi_offset 6, -16
	movq	%rsp, %rbp
	.seh_setframe	%rbp, 0
	.cfi_def_cfa_register 6
	subq	$48, %rsp
	.seh_stackalloc	48
	.seh_endprologue
	movq	%rcx, 16(%rbp)
	movq	%rdx, 24(%rbp)
	movl	%r8d, 32(%rbp)
	.loc 4 24 87
	movl	32(%rbp), %eax
	cltq
	.loc 4 24 76
	cmpq	$3, %rax
	ja	.L25
	.loc 4 24 121 discriminator 1
	movl	$0, %eax
	jmp	.L27
.L25:
	.loc 4 24 142 discriminator 2
	movq	16(%rbp), %rcx
	leaq	-4(%rbp), %rax
	movq	%rax, %rdx
	call	_ZNSirsERf
	.loc 4 24 153 discriminator 2
	movl	-4(%rbp), %edx
	movq	24(%rbp), %rax
	movl	%edx, (%rax)
	.loc 4 24 187 discriminator 2
	addq	$4, 24(%rbp)
	.loc 4 24 234 discriminator 2
	movl	$4, %eax
.L27:
	.loc 4 24 237 discriminator 1
	addq	$48, %rsp
	popq	%rbp
	.cfi_restore 6
	.cfi_def_cfa 7, 8
	ret
	.cfi_endproc
.LFE1987:
	.seh_endproc
	.section .rdata,"dr"
.LC0:
	.ascii "\347\247\273\345\212\250:\12float: dist \12\0"
	.data
	.align 8
_ZN12_GLOBAL__N_121__pcall_move_describeE:
	.quad	.LC0
	.text
	.def	_ZN12_GLOBAL__N_118__pcall_arm_x_moveERNSt7__cxx1119basic_istringstreamIcSt11char_traitsIcESaIcEEEPhi;	.scl	3;	.type	32;	.endef
	.seh_proc	_ZN12_GLOBAL__N_118__pcall_arm_x_moveERNSt7__cxx1119basic_istringstreamIcSt11char_traitsIcESaIcEEEPhi
_ZN12_GLOBAL__N_118__pcall_arm_x_moveERNSt7__cxx1119basic_istringstreamIcSt11char_traitsIcESaIcEEEPhi:
.LFB1988:
	.loc 4 25 80
	.cfi_startproc
	pushq	%rbp
	.seh_pushreg	%rbp
	.cfi_def_cfa_offset 16
	.cfi_offset 6, -16
	movq	%rsp, %rbp
	.seh_setframe	%rbp, 0
	.cfi_def_cfa_register 6
	subq	$48, %rsp
	.seh_stackalloc	48
	.seh_endprologue
	movq	%rcx, 16(%rbp)
	movq	%rdx, 24(%rbp)
	movl	%r8d, 32(%rbp)
	.loc 4 25 93
	movl	32(%rbp), %eax
	cltq
	.loc 4 25 82
	cmpq	$7, %rax
	ja	.L29
	.loc 4 25 169 discriminator 1
	movl	$0, %eax
	jmp	.L31
.L29:
	.loc 4 25 190 discriminator 2
	movq	16(%rbp), %rcx
	leaq	-4(%rbp), %rax
	movq	%rax, %rdx
	call	_ZNSirsERf
	.loc 4 25 201 discriminator 2
	movl	-4(%rbp), %edx
	movq	24(%rbp), %rax
	movl	%edx, (%rax)
	.loc 4 25 235 discriminator 2
	addq	$4, 24(%rbp)
	.loc 4 25 324 discriminator 2
	movl	$8, %eax
.L31:
	.loc 4 25 327 discriminator 1
	addq	$48, %rsp
	popq	%rbp
	.cfi_restore 6
	.cfi_def_cfa 7, 8
	ret
	.cfi_endproc
.LFE1988:
	.seh_endproc
	.section .rdata,"dr"
	.align 8
.LC1:
	.ascii "x\347\247\273\345\212\250:\12float: dist \12uint16_t: spd \12uint16_t: acc \12\0"
	.data
	.align 8
_ZN12_GLOBAL__N_127__pcall_arm_x_move_describeE:
	.quad	.LC1
	.text
	.def	_ZN12_GLOBAL__N_118__pcall_arm_z_moveERNSt7__cxx1119basic_istringstreamIcSt11char_traitsIcESaIcEEEPhi;	.scl	3;	.type	32;	.endef
	.seh_proc	_ZN12_GLOBAL__N_118__pcall_arm_z_moveERNSt7__cxx1119basic_istringstreamIcSt11char_traitsIcESaIcEEEPhi
_ZN12_GLOBAL__N_118__pcall_arm_z_moveERNSt7__cxx1119basic_istringstreamIcSt11char_traitsIcESaIcEEEPhi:
.LFB1989:
	.loc 4 26 80
	.cfi_startproc
	pushq	%rbp
	.seh_pushreg	%rbp
	.cfi_def_cfa_offset 16
	.cfi_offset 6, -16
	movq	%rsp, %rbp
	.seh_setframe	%rbp, 0
	.cfi_def_cfa_register 6
	subq	$48, %rsp
	.seh_stackalloc	48
	.seh_endprologue
	movq	%rcx, 16(%rbp)
	movq	%rdx, 24(%rbp)
	movl	%r8d, 32(%rbp)
	.loc 4 26 93
	movl	32(%rbp), %eax
	cltq
	.loc 4 26 82
	cmpq	$6, %rax
	ja	.L33
	.loc 4 26 168 discriminator 1
	movl	$0, %eax
	jmp	.L35
.L33:
	.loc 4 26 189 discriminator 2
	movq	16(%rbp), %rcx
	leaq	-4(%rbp), %rax
	movq	%rax, %rdx
	call	_ZNSirsERf
	.loc 4 26 200 discriminator 2
	movl	-4(%rbp), %edx
	movq	24(%rbp), %rax
	movl	%edx, (%rax)
	.loc 4 26 234 discriminator 2
	addq	$4, 24(%rbp)
	.loc 4 26 322 discriminator 2
	movl	$7, %eax
.L35:
	.loc 4 26 325 discriminator 1
	addq	$48, %rsp
	popq	%rbp
	.cfi_restore 6
	.cfi_def_cfa 7, 8
	ret
	.cfi_endproc
.LFE1989:
	.seh_endproc
	.section .rdata,"dr"
	.align 8
.LC2:
	.ascii "y\347\247\273\345\212\250:\12float: dist \12uint16_t: spd \12uint8_t: acc \12\0"
	.data
	.align 8
_ZN12_GLOBAL__N_127__pcall_arm_z_move_describeE:
	.quad	.LC2
	.text
	.def	_ZN12_GLOBAL__N_118__pcall_arm_r_moveERNSt7__cxx1119basic_istringstreamIcSt11char_traitsIcESaIcEEEPhi;	.scl	3;	.type	32;	.endef
	.seh_proc	_ZN12_GLOBAL__N_118__pcall_arm_r_moveERNSt7__cxx1119basic_istringstreamIcSt11char_traitsIcESaIcEEEPhi
_ZN12_GLOBAL__N_118__pcall_arm_r_moveERNSt7__cxx1119basic_istringstreamIcSt11char_traitsIcESaIcEEEPhi:
.LFB1990:
	.loc 4 27 80
	.cfi_startproc
	pushq	%rbp
	.seh_pushreg	%rbp
	.cfi_def_cfa_offset 16
	.cfi_offset 6, -16
	movq	%rsp, %rbp
	.seh_setframe	%rbp, 0
	.cfi_def_cfa_register 6
	subq	$48, %rsp
	.seh_stackalloc	48
	.seh_endprologue
	movq	%rcx, 16(%rbp)
	movq	%rdx, 24(%rbp)
	movl	%r8d, 32(%rbp)
	.loc 4 27 93
	movl	32(%rbp), %eax
	cltq
	.loc 4 27 82
	cmpq	$6, %rax
	ja	.L37
	.loc 4 27 168 discriminator 1
	movl	$0, %eax
	jmp	.L39
.L37:
	.loc 4 27 189 discriminator 2
	movq	16(%rbp), %rcx
	leaq	-4(%rbp), %rax
	movq	%rax, %rdx
	call	_ZNSirsERf
	.loc 4 27 200 discriminator 2
	movl	-4(%rbp), %edx
	movq	24(%rbp), %rax
	movl	%edx, (%rax)
	.loc 4 27 234 discriminator 2
	addq	$4, 24(%rbp)
	.loc 4 27 322 discriminator 2
	movl	$7, %eax
.L39:
	.loc 4 27 325 discriminator 1
	addq	$48, %rsp
	popq	%rbp
	.cfi_restore 6
	.cfi_def_cfa 7, 8
	ret
	.cfi_endproc
.LFE1990:
	.seh_endproc
	.section .rdata,"dr"
	.align 8
.LC3:
	.ascii "r\347\247\273\345\212\250:\12float: dist \12uint16_t: spd \12uint8_t: acc \12\0"
	.data
	.align 8
_ZN12_GLOBAL__N_127__pcall_arm_r_move_describeE:
	.quad	.LC3
	.align 32
_ZN12_GLOBAL__N_111PCALL_TABLEE:
	.quad	_ZN12_GLOBAL__N_112__pcall_moveERNSt7__cxx1119basic_istringstreamIcSt11char_traitsIcESaIcEEEPhi
	.space 8
	.byte	109
	.space 7
	.quad	_ZN12_GLOBAL__N_118__pcall_arm_x_moveERNSt7__cxx1119basic_istringstreamIcSt11char_traitsIcESaIcEEEPhi
	.space 8
	.byte	120
	.space 7
	.quad	_ZN12_GLOBAL__N_118__pcall_arm_z_moveERNSt7__cxx1119basic_istringstreamIcSt11char_traitsIcESaIcEEEPhi
	.space 8
	.byte	122
	.space 7
	.quad	_ZN12_GLOBAL__N_118__pcall_arm_r_moveERNSt7__cxx1119basic_istringstreamIcSt11char_traitsIcESaIcEEEPhi
	.space 8
	.byte	114
	.space 7
	.text
	.def	_ZN12_GLOBAL__N_110pcall_initEv;	.scl	3;	.type	32;	.endef
	.seh_proc	_ZN12_GLOBAL__N_110pcall_initEv
_ZN12_GLOBAL__N_110pcall_initEv:
.LFB1991:
	.loc 4 40 35
	.cfi_startproc
	pushq	%rbp
	.seh_pushreg	%rbp
	.cfi_def_cfa_offset 16
	.cfi_offset 6, -16
	movq	%rsp, %rbp
	.seh_setframe	%rbp, 0
	.cfi_def_cfa_register 6
	subq	$32, %rsp
	.seh_stackalloc	32
	.seh_endprologue
	movq	%rcx, 16(%rbp)
	.loc 4 40 120
	movl	$4, %r8d
	leaq	_ZN12_GLOBAL__N_111PCALL_TABLEE(%rip), %rdx
	movq	16(%rbp), %rcx
	call	_ZN2ps5pcall6ClientC1EPKNS0_5pcallEj
	.loc 4 40 122
	movq	16(%rbp), %rax
	addq	$32, %rsp
	popq	%rbp
	.cfi_restore 6
	.cfi_def_cfa 7, 8
	ret
	.cfi_endproc
.LFE1991:
	.seh_endproc
	.section .rdata,"dr"
.LC4:
	.ascii "%c: %s\12\0"
	.text
	.globl	_Z11test_clientPKcPh
	.def	_Z11test_clientPKcPh;	.scl	2;	.type	32;	.endef
	.seh_proc	_Z11test_clientPKcPh
_Z11test_clientPKcPh:
.LFB1992:
	.file 5 "D:/Code-Lib/mmcar/controller/Modules/pcode/demo/test_client.cpp"
	.loc 5 14 1
	.cfi_startproc
	pushq	%rbp
	.seh_pushreg	%rbp
	.cfi_def_cfa_offset 16
	.cfi_offset 6, -16
	pushq	%rbx
	.seh_pushreg	%rbx
	.cfi_def_cfa_offset 24
	.cfi_offset 3, -24
	subq	$152, %rsp
	.seh_stackalloc	152
	.cfi_def_cfa_offset 176
	leaq	128(%rsp), %rbp
	.seh_setframe	%rbp, 128
	.cfi_def_cfa 6, 48
	.seh_endprologue
	movq	%rcx, 48(%rbp)
	movq	%rdx, 56(%rbp)
	.loc 5 16 25
	leaq	6(%rbp), %rax
	movq	%rax, %rcx
	call	_ZNSaIcEC1Ev
	leaq	6(%rbp), %rdx
	leaq	-32(%rbp), %rax
	movq	%rdx, %r8
	movq	48(%rbp), %rdx
	movq	%rax, %rcx
.LEHB3:
	call	_ZNSt7__cxx1112basic_stringIcSt11char_traitsIcESaIcEEC1EPKcRKS3_
.LEHE3:
	leaq	6(%rbp), %rax
	movq	%rax, %rcx
	call	_ZNSaIcED1Ev
	.loc 5 17 30
	leaq	-48(%rbp), %rax
	movq	%rax, %rcx
.LEHB4:
	call	_ZN12_GLOBAL__N_110pcall_initEv
	.loc 5 18 17
	movq	56(%rbp), %rcx
	leaq	-32(%rbp), %rdx
	leaq	-48(%rbp), %rax
	movl	$120, %r9d
	movq	%rcx, %r8
	movq	%rax, %rcx
	call	_ZNK2ps5pcall6Client5parseERKNSt7__cxx1112basic_stringIcSt11char_traitsIcESaIcEEEPhi
.LEHE4:
	.loc 5 21 23
	leaq	-80(%rbp), %rax
	movq	%rax, %rcx
	call	_ZNSt6vectorIcSaIcEEC1Ev
	.loc 5 22 21
	leaq	-80(%rbp), %rdx
	leaq	-48(%rbp), %rax
	movq	%rax, %rcx
.LEHB5:
	call	_ZN2ps5pcall6Client9code_listERSt6vectorIcSaIcEE
.LBB6:
	.loc 5 23 20
	leaq	-80(%rbp), %rax
	movq	%rax, 8(%rbp)
	movq	8(%rbp), %rax
	movq	%rax, %rcx
	call	_ZNSt6vectorIcSaIcEE5beginEv
	movq	%rax, -88(%rbp)
	movq	8(%rbp), %rax
	movq	%rax, %rcx
	call	_ZNSt6vectorIcSaIcEE3endEv
	movq	%rax, -96(%rbp)
.L44:
	.loc 5 23 20 is_stmt 0 discriminator 4
	leaq	-96(%rbp), %rdx
	leaq	-88(%rbp), %rax
	movq	%rax, %rcx
	call	_ZN9__gnu_cxxneIPcSt6vectorIcSaIcEEEEbRKNS_17__normal_iteratorIT_T0_EESA_
	testb	%al, %al
	je	.L43
	.loc 5 23 20 discriminator 2
	leaq	-88(%rbp), %rax
	movq	%rax, %rcx
	call	_ZNK9__gnu_cxx17__normal_iteratorIPcSt6vectorIcSaIcEEEdeEv
	movzbl	(%rax), %eax
	movb	%al, 7(%rbp)
	.loc 5 23 37 is_stmt 1 discriminator 2
	movsbl	7(%rbp), %edx
	leaq	-48(%rbp), %rax
	movq	%rax, %rcx
	call	_ZNK2ps5pcall6Client8describeEc
	movq	%rax, %rdx
	movsbl	7(%rbp), %eax
	movq	%rdx, %r8
	movl	%eax, %edx
	leaq	.LC4(%rip), %rcx
	call	_ZL6printfPKcz
.LEHE5:
	.loc 5 23 20 discriminator 3
	leaq	-88(%rbp), %rax
	movq	%rax, %rcx
	call	_ZN9__gnu_cxx17__normal_iteratorIPcSt6vectorIcSaIcEEEppEv
	.loc 5 23 5 discriminator 3
	jmp	.L44
.L43:
.LBE6:
	.loc 5 21 23
	leaq	-80(%rbp), %rax
	movq	%rax, %rcx
	call	_ZNSt6vectorIcSaIcEED1Ev
	.loc 5 16 25
	leaq	-32(%rbp), %rax
	movq	%rax, %rcx
	call	_ZNSt7__cxx1112basic_stringIcSt11char_traitsIcESaIcEED1Ev
	.loc 5 24 1
	jmp	.L51
.L48:
	movq	%rax, %rbx
	leaq	6(%rbp), %rax
	movq	%rax, %rcx
	call	_ZNSaIcED1Ev
	movq	%rbx, %rax
	movq	%rax, %rcx
.LEHB6:
	call	_Unwind_Resume
.L50:
	movq	%rax, %rbx
	.loc 5 21 23
	leaq	-80(%rbp), %rax
	movq	%rax, %rcx
	call	_ZNSt6vectorIcSaIcEED1Ev
	jmp	.L47
.L49:
	movq	%rax, %rbx
.L47:
	.loc 5 16 25
	leaq	-32(%rbp), %rax
	movq	%rax, %rcx
	call	_ZNSt7__cxx1112basic_stringIcSt11char_traitsIcESaIcEED1Ev
	movq	%rbx, %rax
	movq	%rax, %rcx
	call	_Unwind_Resume
	nop
.LEHE6:
.L51:
	.loc 5 24 1
	addq	$152, %rsp
	popq	%rbx
	.cfi_restore 3
	popq	%rbp
	.cfi_restore 6
	.cfi_def_cfa 7, -136
	ret
	.cfi_endproc
.LFE1992:
	.seh_handler	__gxx_personality_seh0, @unwind, @except
	.seh_handlerdata
.LLSDA1992:
	.byte	0xff
	.byte	0xff
	.byte	0x1
	.uleb128 .LLSDACSE1992-.LLSDACSB1992
.LLSDACSB1992:
	.uleb128 .LEHB3-.LFB1992
	.uleb128 .LEHE3-.LEHB3
	.uleb128 .L48-.LFB1992
	.uleb128 0
	.uleb128 .LEHB4-.LFB1992
	.uleb128 .LEHE4-.LEHB4
	.uleb128 .L49-.LFB1992
	.uleb128 0
	.uleb128 .LEHB5-.LFB1992
	.uleb128 .LEHE5-.LEHB5
	.uleb128 .L50-.LFB1992
	.uleb128 0
	.uleb128 .LEHB6-.LFB1992
	.uleb128 .LEHE6-.LEHB6
	.uleb128 0
	.uleb128 0
.LLSDACSE1992:
	.text
	.seh_endproc
	.section	.text$_ZNSt6vectorIcSaIcEE9push_backEOc,"x"
	.linkonce discard
	.align 2
	.globl	_ZNSt6vectorIcSaIcEE9push_backEOc
	.def	_ZNSt6vectorIcSaIcEE9push_backEOc;	.scl	2;	.type	32;	.endef
	.seh_proc	_ZNSt6vectorIcSaIcEE9push_backEOc
_ZNSt6vectorIcSaIcEE9push_backEOc:
.LFB2240:
	.file 6 "E:/Code_Lib/compilers/mingw64/lib/gcc/x86_64-w64-mingw32/8.1.0/include/c++/bits/stl_vector.h"
	.loc 6 1090 7
	.cfi_startproc
	pushq	%rbp
	.seh_pushreg	%rbp
	.cfi_def_cfa_offset 16
	.cfi_offset 6, -16
	movq	%rsp, %rbp
	.seh_setframe	%rbp, 0
	.cfi_def_cfa_register 6
	subq	$32, %rsp
	.seh_stackalloc	32
	.seh_endprologue
	movq	%rcx, 16(%rbp)
	movq	%rdx, 24(%rbp)
	.loc 6 1091 31
	movq	24(%rbp), %rax
	movq	%rax, %rcx
	call	_ZSt4moveIRcEONSt16remove_referenceIT_E4typeEOS2_
	.loc 6 1091 9
	movq	%rax, %rdx
	movq	16(%rbp), %rcx
	call	_ZNSt6vectorIcSaIcEE12emplace_backIJcEEEvDpOT_
	.loc 6 1091 39
	nop
	addq	$32, %rsp
	popq	%rbp
	.cfi_restore 6
	.cfi_def_cfa 7, 8
	ret
	.cfi_endproc
.LFE2240:
	.seh_endproc
	.section	.text$_ZNSt6vectorIcSaIcEEC1Ev,"x"
	.linkonce discard
	.align 2
	.globl	_ZNSt6vectorIcSaIcEEC1Ev
	.def	_ZNSt6vectorIcSaIcEEC1Ev;	.scl	2;	.type	32;	.endef
	.seh_proc	_ZNSt6vectorIcSaIcEEC1Ev
_ZNSt6vectorIcSaIcEEC1Ev:
.LFB2247:
	.loc 6 391 7
	.cfi_startproc
	pushq	%rbp
	.seh_pushreg	%rbp
	.cfi_def_cfa_offset 16
	.cfi_offset 6, -16
	movq	%rsp, %rbp
	.seh_setframe	%rbp, 0
	.cfi_def_cfa_register 6
	subq	$32, %rsp
	.seh_stackalloc	32
	.seh_endprologue
	movq	%rcx, 16(%rbp)
.LBB7:
	.loc 6 395 15
	movq	16(%rbp), %rax
	movq	%rax, %rcx
	call	_ZNSt12_Vector_baseIcSaIcEEC2Ev
.LBE7:
	.loc 6 395 19
	nop
	addq	$32, %rsp
	popq	%rbp
	.cfi_restore 6
	.cfi_def_cfa 7, 8
	ret
	.cfi_endproc
.LFE2247:
	.seh_handler	__gxx_personality_seh0, @unwind, @except
	.seh_handlerdata
.LLSDA2247:
	.byte	0xff
	.byte	0xff
	.byte	0x1
	.uleb128 .LLSDACSE2247-.LLSDACSB2247
.LLSDACSB2247:
.LLSDACSE2247:
	.section	.text$_ZNSt6vectorIcSaIcEEC1Ev,"x"
	.linkonce discard
	.seh_endproc
	.section	.text$_ZNSt6vectorIcSaIcEED1Ev,"x"
	.linkonce discard
	.align 2
	.globl	_ZNSt6vectorIcSaIcEED1Ev
	.def	_ZNSt6vectorIcSaIcEED1Ev;	.scl	2;	.type	32;	.endef
	.seh_proc	_ZNSt6vectorIcSaIcEED1Ev
_ZNSt6vectorIcSaIcEED1Ev:
.LFB2250:
	.loc 6 565 7
	.cfi_startproc
	pushq	%rbp
	.seh_pushreg	%rbp
	.cfi_def_cfa_offset 16
	.cfi_offset 6, -16
	movq	%rsp, %rbp
	.seh_setframe	%rbp, 0
	.cfi_def_cfa_register 6
	subq	$32, %rsp
	.seh_stackalloc	32
	.seh_endprologue
	movq	%rcx, 16(%rbp)
.LBB8:
	.loc 6 568 28
	movq	16(%rbp), %rax
	movq	%rax, %rcx
	call	_ZNSt12_Vector_baseIcSaIcEE19_M_get_Tp_allocatorEv
	movq	%rax, %rcx
	.loc 6 567 15
	movq	16(%rbp), %rax
	movq	8(%rax), %rdx
	movq	16(%rbp), %rax
	movq	(%rax), %rax
	movq	%rcx, %r8
	movq	%rax, %rcx
	call	_ZSt8_DestroyIPccEvT_S1_RSaIT0_E
	.loc 6 570 7
	movq	16(%rbp), %rax
	movq	%rax, %rcx
	call	_ZNSt12_Vector_baseIcSaIcEED2Ev
.LBE8:
	nop
	addq	$32, %rsp
	popq	%rbp
	.cfi_restore 6
	.cfi_def_cfa 7, 8
	ret
	.cfi_endproc
.LFE2250:
	.seh_handler	__gxx_personality_seh0, @unwind, @except
	.seh_handlerdata
.LLSDA2250:
	.byte	0xff
	.byte	0xff
	.byte	0x1
	.uleb128 .LLSDACSE2250-.LLSDACSB2250
.LLSDACSB2250:
.LLSDACSE2250:
	.section	.text$_ZNSt6vectorIcSaIcEED1Ev,"x"
	.linkonce discard
	.seh_endproc
	.section	.text$_ZNSt6vectorIcSaIcEE5beginEv,"x"
	.linkonce discard
	.align 2
	.globl	_ZNSt6vectorIcSaIcEE5beginEv
	.def	_ZNSt6vectorIcSaIcEE5beginEv;	.scl	2;	.type	32;	.endef
	.seh_proc	_ZNSt6vectorIcSaIcEE5beginEv
_ZNSt6vectorIcSaIcEE5beginEv:
.LFB2251:
	.loc 6 698 7
	.cfi_startproc
	pushq	%rbp
	.seh_pushreg	%rbp
	.cfi_def_cfa_offset 16
	.cfi_offset 6, -16
	movq	%rsp, %rbp
	.seh_setframe	%rbp, 0
	.cfi_def_cfa_register 6
	subq	$48, %rsp
	.seh_stackalloc	48
	.seh_endprologue
	movq	%rcx, 16(%rbp)
	.loc 6 699 39
	movq	16(%rbp), %rdx
	.loc 6 699 47
	leaq	-8(%rbp), %rax
	movq	%rax, %rcx
	call	_ZN9__gnu_cxx17__normal_iteratorIPcSt6vectorIcSaIcEEEC1ERKS1_
	movq	-8(%rbp), %rax
	.loc 6 699 50
	addq	$48, %rsp
	popq	%rbp
	.cfi_restore 6
	.cfi_def_cfa 7, 8
	ret
	.cfi_endproc
.LFE2251:
	.seh_endproc
	.section	.text$_ZNSt6vectorIcSaIcEE3endEv,"x"
	.linkonce discard
	.align 2
	.globl	_ZNSt6vectorIcSaIcEE3endEv
	.def	_ZNSt6vectorIcSaIcEE3endEv;	.scl	2;	.type	32;	.endef
	.seh_proc	_ZNSt6vectorIcSaIcEE3endEv
_ZNSt6vectorIcSaIcEE3endEv:
.LFB2252:
	.loc 6 716 7
	.cfi_startproc
	pushq	%rbp
	.seh_pushreg	%rbp
	.cfi_def_cfa_offset 16
	.cfi_offset 6, -16
	movq	%rsp, %rbp
	.seh_setframe	%rbp, 0
	.cfi_def_cfa_register 6
	subq	$48, %rsp
	.seh_stackalloc	48
	.seh_endprologue
	movq	%rcx, 16(%rbp)
	.loc 6 717 39
	movq	16(%rbp), %rax
	leaq	8(%rax), %rdx
	.loc 6 717 48
	leaq	-8(%rbp), %rax
	movq	%rax, %rcx
	call	_ZN9__gnu_cxx17__normal_iteratorIPcSt6vectorIcSaIcEEEC1ERKS1_
	movq	-8(%rbp), %rax
	.loc 6 717 51
	addq	$48, %rsp
	popq	%rbp
	.cfi_restore 6
	.cfi_def_cfa 7, 8
	ret
	.cfi_endproc
.LFE2252:
	.seh_endproc
	.section	.text$_ZN9__gnu_cxxneIPcSt6vectorIcSaIcEEEEbRKNS_17__normal_iteratorIT_T0_EESA_,"x"
	.linkonce discard
	.globl	_ZN9__gnu_cxxneIPcSt6vectorIcSaIcEEEEbRKNS_17__normal_iteratorIT_T0_EESA_
	.def	_ZN9__gnu_cxxneIPcSt6vectorIcSaIcEEEEbRKNS_17__normal_iteratorIT_T0_EESA_;	.scl	2;	.type	32;	.endef
	.seh_proc	_ZN9__gnu_cxxneIPcSt6vectorIcSaIcEEEEbRKNS_17__normal_iteratorIT_T0_EESA_
_ZN9__gnu_cxxneIPcSt6vectorIcSaIcEEEEbRKNS_17__normal_iteratorIT_T0_EESA_:
.LFB2253:
	.file 7 "E:/Code_Lib/compilers/mingw64/lib/gcc/x86_64-w64-mingw32/8.1.0/include/c++/bits/stl_iterator.h"
	.loc 7 881 5
	.cfi_startproc
	pushq	%rbp
	.seh_pushreg	%rbp
	.cfi_def_cfa_offset 16
	.cfi_offset 6, -16
	pushq	%rbx
	.seh_pushreg	%rbx
	.cfi_def_cfa_offset 24
	.cfi_offset 3, -24
	subq	$40, %rsp
	.seh_stackalloc	40
	.cfi_def_cfa_offset 64
	leaq	128(%rsp), %rbp
	.seh_setframe	%rbp, 128
	.cfi_def_cfa 6, -64
	.seh_endprologue
	movq	%rcx, -64(%rbp)
	movq	%rdx, -56(%rbp)
	.loc 7 884 27
	movq	-64(%rbp), %rcx
	call	_ZNK9__gnu_cxx17__normal_iteratorIPcSt6vectorIcSaIcEEE4baseEv
	movq	(%rax), %rbx
	movq	-56(%rbp), %rax
	movq	%rax, %rcx
	call	_ZNK9__gnu_cxx17__normal_iteratorIPcSt6vectorIcSaIcEEE4baseEv
	movq	(%rax), %rax
	.loc 7 884 41
	cmpq	%rax, %rbx
	setne	%al
	.loc 7 884 44
	addq	$40, %rsp
	popq	%rbx
	.cfi_restore 3
	popq	%rbp
	.cfi_restore 6
	.cfi_def_cfa 7, -24
	ret
	.cfi_endproc
.LFE2253:
	.seh_endproc
	.section	.text$_ZN9__gnu_cxx17__normal_iteratorIPcSt6vectorIcSaIcEEEppEv,"x"
	.linkonce discard
	.align 2
	.globl	_ZN9__gnu_cxx17__normal_iteratorIPcSt6vectorIcSaIcEEEppEv
	.def	_ZN9__gnu_cxx17__normal_iteratorIPcSt6vectorIcSaIcEEEppEv;	.scl	2;	.type	32;	.endef
	.seh_proc	_ZN9__gnu_cxx17__normal_iteratorIPcSt6vectorIcSaIcEEEppEv
_ZN9__gnu_cxx17__normal_iteratorIPcSt6vectorIcSaIcEEEppEv:
.LFB2254:
	.loc 7 801 7
	.cfi_startproc
	pushq	%rbp
	.seh_pushreg	%rbp
	.cfi_def_cfa_offset 16
	.cfi_offset 6, -16
	movq	%rsp, %rbp
	.seh_setframe	%rbp, 0
	.cfi_def_cfa_register 6
	.seh_endprologue
	movq	%rcx, 16(%rbp)
	.loc 7 803 4
	movq	16(%rbp), %rax
	movq	(%rax), %rax
	.loc 7 803 2
	leaq	1(%rax), %rdx
	movq	16(%rbp), %rax
	movq	%rdx, (%rax)
	.loc 7 804 10
	movq	16(%rbp), %rax
	.loc 7 805 7
	popq	%rbp
	.cfi_restore 6
	.cfi_def_cfa 7, 8
	ret
	.cfi_endproc
.LFE2254:
	.seh_endproc
	.section	.text$_ZNK9__gnu_cxx17__normal_iteratorIPcSt6vectorIcSaIcEEEdeEv,"x"
	.linkonce discard
	.align 2
	.globl	_ZNK9__gnu_cxx17__normal_iteratorIPcSt6vectorIcSaIcEEEdeEv
	.def	_ZNK9__gnu_cxx17__normal_iteratorIPcSt6vectorIcSaIcEEEdeEv;	.scl	2;	.type	32;	.endef
	.seh_proc	_ZNK9__gnu_cxx17__normal_iteratorIPcSt6vectorIcSaIcEEEdeEv
_ZNK9__gnu_cxx17__normal_iteratorIPcSt6vectorIcSaIcEEEdeEv:
.LFB2255:
	.loc 7 793 7
	.cfi_startproc
	pushq	%rbp
	.seh_pushreg	%rbp
	.cfi_def_cfa_offset 16
	.cfi_offset 6, -16
	movq	%rsp, %rbp
	.seh_setframe	%rbp, 0
	.cfi_def_cfa_register 6
	.seh_endprologue
	movq	%rcx, 16(%rbp)
	.loc 7 794 17
	movq	16(%rbp), %rax
	movq	(%rax), %rax
	.loc 7 794 29
	popq	%rbp
	.cfi_restore 6
	.cfi_def_cfa 7, 8
	ret
	.cfi_endproc
.LFE2255:
	.seh_endproc
	.section	.text$_ZSt4moveIRcEONSt16remove_referenceIT_E4typeEOS2_,"x"
	.linkonce discard
	.globl	_ZSt4moveIRcEONSt16remove_referenceIT_E4typeEOS2_
	.def	_ZSt4moveIRcEONSt16remove_referenceIT_E4typeEOS2_;	.scl	2;	.type	32;	.endef
	.seh_proc	_ZSt4moveIRcEONSt16remove_referenceIT_E4typeEOS2_
_ZSt4moveIRcEONSt16remove_referenceIT_E4typeEOS2_:
.LFB2385:
	.file 8 "E:/Code_Lib/compilers/mingw64/lib/gcc/x86_64-w64-mingw32/8.1.0/include/c++/bits/move.h"
	.loc 8 99 5
	.cfi_startproc
	pushq	%rbp
	.seh_pushreg	%rbp
	.cfi_def_cfa_offset 16
	.cfi_offset 6, -16
	movq	%rsp, %rbp
	.seh_setframe	%rbp, 0
	.cfi_def_cfa_register 6
	.seh_endprologue
	movq	%rcx, 16(%rbp)
	.loc 8 100 74
	movq	16(%rbp), %rax
	.loc 8 100 77
	popq	%rbp
	.cfi_restore 6
	.cfi_def_cfa 7, 8
	ret
	.cfi_endproc
.LFE2385:
	.seh_endproc
	.section	.text$_ZNSt6vectorIcSaIcEE12emplace_backIJcEEEvDpOT_,"x"
	.linkonce discard
	.align 2
	.globl	_ZNSt6vectorIcSaIcEE12emplace_backIJcEEEvDpOT_
	.def	_ZNSt6vectorIcSaIcEE12emplace_backIJcEEEvDpOT_;	.scl	2;	.type	32;	.endef
	.seh_proc	_ZNSt6vectorIcSaIcEE12emplace_backIJcEEEvDpOT_
_ZNSt6vectorIcSaIcEE12emplace_backIJcEEEvDpOT_:
.LFB2386:
	.file 9 "E:/Code_Lib/compilers/mingw64/lib/gcc/x86_64-w64-mingw32/8.1.0/include/c++/bits/vector.tcc"
	.loc 9 97 7
	.cfi_startproc
	pushq	%rbp
	.seh_pushreg	%rbp
	.cfi_def_cfa_offset 16
	.cfi_offset 6, -16
	pushq	%rbx
	.seh_pushreg	%rbx
	.cfi_def_cfa_offset 24
	.cfi_offset 3, -24
	subq	$40, %rsp
	.seh_stackalloc	40
	.cfi_def_cfa_offset 64
	leaq	128(%rsp), %rbp
	.seh_setframe	%rbp, 128
	.cfi_def_cfa 6, -64
	.seh_endprologue
	movq	%rcx, -64(%rbp)
	movq	%rdx, -56(%rbp)
	.loc 9 100 20
	movq	-64(%rbp), %rax
	movq	8(%rax), %rdx
	.loc 9 100 47
	movq	-64(%rbp), %rax
	movq	16(%rax), %rax
	.loc 9 100 2
	cmpq	%rax, %rdx
	je	.L68
	.loc 9 103 30
	movq	-56(%rbp), %rax
	movq	%rax, %rcx
	call	_ZSt7forwardIcEOT_RNSt16remove_referenceIS0_E4typeE
	movq	%rax, %rcx
	movq	-64(%rbp), %rax
	movq	8(%rax), %rdx
	.loc 9 103 37
	movq	-64(%rbp), %rax
	.loc 9 103 30
	movq	%rcx, %r8
	movq	%rax, %rcx
	call	_ZNSt16allocator_traitsISaIcEE9constructIcJcEEEvRS0_PT_DpOT0_
	.loc 9 105 22
	movq	-64(%rbp), %rax
	movq	8(%rax), %rax
	.loc 9 105 6
	leaq	1(%rax), %rdx
	movq	-64(%rbp), %rax
	movq	%rdx, 8(%rax)
	.loc 9 113 7
	jmp	.L70
.L68:
	.loc 9 109 4
	movq	-56(%rbp), %rax
	movq	%rax, %rcx
	call	_ZSt7forwardIcEOT_RNSt16remove_referenceIS0_E4typeE
	movq	%rax, %rbx
	movq	-64(%rbp), %rcx
	call	_ZNSt6vectorIcSaIcEE3endEv
	movq	%rbx, %r8
	movq	%rax, %rdx
	movq	-64(%rbp), %rcx
	call	_ZNSt6vectorIcSaIcEE17_M_realloc_insertIJcEEEvN9__gnu_cxx17__normal_iteratorIPcS1_EEDpOT_
.L70:
	.loc 9 113 7
	nop
	addq	$40, %rsp
	popq	%rbx
	.cfi_restore 3
	popq	%rbp
	.cfi_restore 6
	.cfi_def_cfa 7, -24
	ret
	.cfi_endproc
.LFE2386:
	.seh_endproc
	.section	.text$_ZNSt12_Vector_baseIcSaIcEE12_Vector_implD1Ev,"x"
	.linkonce discard
	.align 2
	.globl	_ZNSt12_Vector_baseIcSaIcEE12_Vector_implD1Ev
	.def	_ZNSt12_Vector_baseIcSaIcEE12_Vector_implD1Ev;	.scl	2;	.type	32;	.endef
	.seh_proc	_ZNSt12_Vector_baseIcSaIcEE12_Vector_implD1Ev
_ZNSt12_Vector_baseIcSaIcEE12_Vector_implD1Ev:
.LFB2390:
	.loc 6 88 14
	.cfi_startproc
	pushq	%rbp
	.seh_pushreg	%rbp
	.cfi_def_cfa_offset 16
	.cfi_offset 6, -16
	movq	%rsp, %rbp
	.seh_setframe	%rbp, 0
	.cfi_def_cfa_register 6
	subq	$32, %rsp
	.seh_stackalloc	32
	.seh_endprologue
	movq	%rcx, 16(%rbp)
.LBB9:
	.loc 6 88 14
	movq	16(%rbp), %rcx
	call	_ZNSaIcED2Ev
.LBE9:
	nop
	addq	$32, %rsp
	popq	%rbp
	.cfi_restore 6
	.cfi_def_cfa 7, 8
	ret
	.cfi_endproc
.LFE2390:
	.seh_endproc
	.section	.text$_ZNSt12_Vector_baseIcSaIcEEC2Ev,"x"
	.linkonce discard
	.align 2
	.globl	_ZNSt12_Vector_baseIcSaIcEEC2Ev
	.def	_ZNSt12_Vector_baseIcSaIcEEC2Ev;	.scl	2;	.type	32;	.endef
	.seh_proc	_ZNSt12_Vector_baseIcSaIcEEC2Ev
_ZNSt12_Vector_baseIcSaIcEEC2Ev:
.LFB2391:
	.loc 6 248 7
	.cfi_startproc
	pushq	%rbp
	.seh_pushreg	%rbp
	.cfi_def_cfa_offset 16
	.cfi_offset 6, -16
	movq	%rsp, %rbp
	.seh_setframe	%rbp, 0
	.cfi_def_cfa_register 6
	subq	$32, %rsp
	.seh_stackalloc	32
	.seh_endprologue
	movq	%rcx, 16(%rbp)
.LBB10:
	.loc 6 249 17
	movq	16(%rbp), %rax
	movq	%rax, %rcx
	call	_ZNSt12_Vector_baseIcSaIcEE12_Vector_implC1Ev
.LBE10:
	.loc 6 249 21
	nop
	addq	$32, %rsp
	popq	%rbp
	.cfi_restore 6
	.cfi_def_cfa 7, 8
	ret
	.cfi_endproc
.LFE2391:
	.seh_endproc
	.section	.text$_ZNSt12_Vector_baseIcSaIcEED2Ev,"x"
	.linkonce discard
	.align 2
	.globl	_ZNSt12_Vector_baseIcSaIcEED2Ev
	.def	_ZNSt12_Vector_baseIcSaIcEED2Ev;	.scl	2;	.type	32;	.endef
	.seh_proc	_ZNSt12_Vector_baseIcSaIcEED2Ev
_ZNSt12_Vector_baseIcSaIcEED2Ev:
.LFB2394:
	.loc 6 283 7
	.cfi_startproc
	pushq	%rbp
	.seh_pushreg	%rbp
	.cfi_def_cfa_offset 16
	.cfi_offset 6, -16
	movq	%rsp, %rbp
	.seh_setframe	%rbp, 0
	.cfi_def_cfa_register 6
	subq	$32, %rsp
	.seh_stackalloc	32
	.seh_endprologue
	movq	%rcx, 16(%rbp)
.LBB11:
	.loc 6 286 17
	movq	16(%rbp), %rax
	movq	16(%rax), %rdx
	.loc 6 286 45
	movq	16(%rbp), %rax
	movq	(%rax), %rax
	.loc 6 286 35
	subq	%rax, %rdx
	movq	%rdx, %rax
	.loc 6 285 2
	movq	%rax, %rdx
	movq	16(%rbp), %rax
	movq	(%rax), %rax
	movq	%rdx, %r8
	movq	%rax, %rdx
	movq	16(%rbp), %rcx
	call	_ZNSt12_Vector_baseIcSaIcEE13_M_deallocateEPcy
	.loc 6 287 7
	movq	16(%rbp), %rax
	movq	%rax, %rcx
	call	_ZNSt12_Vector_baseIcSaIcEE12_Vector_implD1Ev
.LBE11:
	nop
	addq	$32, %rsp
	popq	%rbp
	.cfi_restore 6
	.cfi_def_cfa 7, 8
	ret
	.cfi_endproc
.LFE2394:
	.seh_handler	__gxx_personality_seh0, @unwind, @except
	.seh_handlerdata
.LLSDA2394:
	.byte	0xff
	.byte	0xff
	.byte	0x1
	.uleb128 .LLSDACSE2394-.LLSDACSB2394
.LLSDACSB2394:
.LLSDACSE2394:
	.section	.text$_ZNSt12_Vector_baseIcSaIcEED2Ev,"x"
	.linkonce discard
	.seh_endproc
	.section	.text$_ZNSt12_Vector_baseIcSaIcEE19_M_get_Tp_allocatorEv,"x"
	.linkonce discard
	.align 2
	.globl	_ZNSt12_Vector_baseIcSaIcEE19_M_get_Tp_allocatorEv
	.def	_ZNSt12_Vector_baseIcSaIcEE19_M_get_Tp_allocatorEv;	.scl	2;	.type	32;	.endef
	.seh_proc	_ZNSt12_Vector_baseIcSaIcEE19_M_get_Tp_allocatorEv
_ZNSt12_Vector_baseIcSaIcEE19_M_get_Tp_allocatorEv:
.LFB2396:
	.loc 6 237 7
	.cfi_startproc
	pushq	%rbp
	.seh_pushreg	%rbp
	.cfi_def_cfa_offset 16
	.cfi_offset 6, -16
	movq	%rsp, %rbp
	.seh_setframe	%rbp, 0
	.cfi_def_cfa_register 6
	.seh_endprologue
	movq	%rcx, 16(%rbp)
	.loc 6 238 60
	movq	16(%rbp), %rax
	.loc 6 238 63
	popq	%rbp
	.cfi_restore 6
	.cfi_def_cfa 7, 8
	ret
	.cfi_endproc
.LFE2396:
	.seh_endproc
	.section	.text$_ZSt8_DestroyIPccEvT_S1_RSaIT0_E,"x"
	.linkonce discard
	.globl	_ZSt8_DestroyIPccEvT_S1_RSaIT0_E
	.def	_ZSt8_DestroyIPccEvT_S1_RSaIT0_E;	.scl	2;	.type	32;	.endef
	.seh_proc	_ZSt8_DestroyIPccEvT_S1_RSaIT0_E
_ZSt8_DestroyIPccEvT_S1_RSaIT0_E:
.LFB2397:
	.file 10 "E:/Code_Lib/compilers/mingw64/lib/gcc/x86_64-w64-mingw32/8.1.0/include/c++/bits/stl_construct.h"
	.loc 10 203 5
	.cfi_startproc
	pushq	%rbp
	.seh_pushreg	%rbp
	.cfi_def_cfa_offset 16
	.cfi_offset 6, -16
	movq	%rsp, %rbp
	.seh_setframe	%rbp, 0
	.cfi_def_cfa_register 6
	subq	$32, %rsp
	.seh_stackalloc	32
	.seh_endprologue
	movq	%rcx, 16(%rbp)
	movq	%rdx, 24(%rbp)
	movq	%r8, 32(%rbp)
	.loc 10 206 15
	movq	24(%rbp), %rax
	movq	%rax, %rdx
	movq	16(%rbp), %rcx
	call	_ZSt8_DestroyIPcEvT_S1_
	.loc 10 207 5
	nop
	addq	$32, %rsp
	popq	%rbp
	.cfi_restore 6
	.cfi_def_cfa 7, 8
	ret
	.cfi_endproc
.LFE2397:
	.seh_endproc
	.section	.text$_ZN9__gnu_cxx17__normal_iteratorIPcSt6vectorIcSaIcEEEC1ERKS1_,"x"
	.linkonce discard
	.align 2
	.globl	_ZN9__gnu_cxx17__normal_iteratorIPcSt6vectorIcSaIcEEEC1ERKS1_
	.def	_ZN9__gnu_cxx17__normal_iteratorIPcSt6vectorIcSaIcEEEC1ERKS1_;	.scl	2;	.type	32;	.endef
	.seh_proc	_ZN9__gnu_cxx17__normal_iteratorIPcSt6vectorIcSaIcEEEC1ERKS1_
_ZN9__gnu_cxx17__normal_iteratorIPcSt6vectorIcSaIcEEEC1ERKS1_:
.LFB2400:
	.loc 7 780 7
	.cfi_startproc
	pushq	%rbp
	.seh_pushreg	%rbp
	.cfi_def_cfa_offset 16
	.cfi_offset 6, -16
	movq	%rsp, %rbp
	.seh_setframe	%rbp, 0
	.cfi_def_cfa_register 6
	.seh_endprologue
	movq	%rcx, 16(%rbp)
	movq	%rdx, 24(%rbp)
.LBB12:
	.loc 7 781 23
	movq	24(%rbp), %rax
	movq	(%rax), %rdx
	movq	16(%rbp), %rax
	movq	%rdx, (%rax)
.LBE12:
	.loc 7 781 27
	nop
	popq	%rbp
	.cfi_restore 6
	.cfi_def_cfa 7, 8
	ret
	.cfi_endproc
.LFE2400:
	.seh_endproc
	.section	.text$_ZNK9__gnu_cxx17__normal_iteratorIPcSt6vectorIcSaIcEEE4baseEv,"x"
	.linkonce discard
	.align 2
	.globl	_ZNK9__gnu_cxx17__normal_iteratorIPcSt6vectorIcSaIcEEE4baseEv
	.def	_ZNK9__gnu_cxx17__normal_iteratorIPcSt6vectorIcSaIcEEE4baseEv;	.scl	2;	.type	32;	.endef
	.seh_proc	_ZNK9__gnu_cxx17__normal_iteratorIPcSt6vectorIcSaIcEEE4baseEv
_ZNK9__gnu_cxx17__normal_iteratorIPcSt6vectorIcSaIcEEE4baseEv:
.LFB2401:
	.loc 7 845 7
	.cfi_startproc
	pushq	%rbp
	.seh_pushreg	%rbp
	.cfi_def_cfa_offset 16
	.cfi_offset 6, -16
	movq	%rsp, %rbp
	.seh_setframe	%rbp, 0
	.cfi_def_cfa_register 6
	.seh_endprologue
	movq	%rcx, 16(%rbp)
	.loc 7 846 16
	movq	16(%rbp), %rax
	.loc 7 846 28
	popq	%rbp
	.cfi_restore 6
	.cfi_def_cfa 7, 8
	ret
	.cfi_endproc
.LFE2401:
	.seh_endproc
	.section	.text$_ZSt7forwardIcEOT_RNSt16remove_referenceIS0_E4typeE,"x"
	.linkonce discard
	.globl	_ZSt7forwardIcEOT_RNSt16remove_referenceIS0_E4typeE
	.def	_ZSt7forwardIcEOT_RNSt16remove_referenceIS0_E4typeE;	.scl	2;	.type	32;	.endef
	.seh_proc	_ZSt7forwardIcEOT_RNSt16remove_referenceIS0_E4typeE
_ZSt7forwardIcEOT_RNSt16remove_referenceIS0_E4typeE:
.LFB2441:
	.loc 8 74 5
	.cfi_startproc
	pushq	%rbp
	.seh_pushreg	%rbp
	.cfi_def_cfa_offset 16
	.cfi_offset 6, -16
	movq	%rsp, %rbp
	.seh_setframe	%rbp, 0
	.cfi_def_cfa_register 6
	.seh_endprologue
	movq	%rcx, 16(%rbp)
	.loc 8 75 36
	movq	16(%rbp), %rax
	.loc 8 75 39
	popq	%rbp
	.cfi_restore 6
	.cfi_def_cfa 7, 8
	ret
	.cfi_endproc
.LFE2441:
	.seh_endproc
	.section	.text$_ZNSt16allocator_traitsISaIcEE9constructIcJcEEEvRS0_PT_DpOT0_,"x"
	.linkonce discard
	.globl	_ZNSt16allocator_traitsISaIcEE9constructIcJcEEEvRS0_PT_DpOT0_
	.def	_ZNSt16allocator_traitsISaIcEE9constructIcJcEEEvRS0_PT_DpOT0_;	.scl	2;	.type	32;	.endef
	.seh_proc	_ZNSt16allocator_traitsISaIcEE9constructIcJcEEEvRS0_PT_DpOT0_
_ZNSt16allocator_traitsISaIcEE9constructIcJcEEEvRS0_PT_DpOT0_:
.LFB2442:
	.file 11 "E:/Code_Lib/compilers/mingw64/lib/gcc/x86_64-w64-mingw32/8.1.0/include/c++/bits/alloc_traits.h"
	.loc 11 474 2
	.cfi_startproc
	pushq	%rbp
	.seh_pushreg	%rbp
	.cfi_def_cfa_offset 16
	.cfi_offset 6, -16
	movq	%rsp, %rbp
	.seh_setframe	%rbp, 0
	.cfi_def_cfa_register 6
	subq	$32, %rsp
	.seh_stackalloc	32
	.seh_endprologue
	movq	%rcx, 16(%rbp)
	movq	%rdx, 24(%rbp)
	movq	%r8, 32(%rbp)
	.loc 11 475 4
	movq	32(%rbp), %rax
	movq	%rax, %rcx
	call	_ZSt7forwardIcEOT_RNSt16remove_referenceIS0_E4typeE
	movq	%rax, %rdx
	movq	24(%rbp), %rax
	movq	%rdx, %r8
	movq	%rax, %rdx
	movq	16(%rbp), %rcx
	call	_ZN9__gnu_cxx13new_allocatorIcE9constructIcJcEEEvPT_DpOT0_
	.loc 11 475 56
	nop
	addq	$32, %rsp
	popq	%rbp
	.cfi_restore 6
	.cfi_def_cfa 7, 8
	ret
	.cfi_endproc
.LFE2442:
	.seh_endproc
	.section .rdata,"dr"
.LC5:
	.ascii "vector::_M_realloc_insert\0"
	.section	.text$_ZNSt6vectorIcSaIcEE17_M_realloc_insertIJcEEEvN9__gnu_cxx17__normal_iteratorIPcS1_EEDpOT_,"x"
	.linkonce discard
	.align 2
	.globl	_ZNSt6vectorIcSaIcEE17_M_realloc_insertIJcEEEvN9__gnu_cxx17__normal_iteratorIPcS1_EEDpOT_
	.def	_ZNSt6vectorIcSaIcEE17_M_realloc_insertIJcEEEvN9__gnu_cxx17__normal_iteratorIPcS1_EEDpOT_;	.scl	2;	.type	32;	.endef
	.seh_proc	_ZNSt6vectorIcSaIcEE17_M_realloc_insertIJcEEEvN9__gnu_cxx17__normal_iteratorIPcS1_EEDpOT_
_ZNSt6vectorIcSaIcEE17_M_realloc_insertIJcEEEvN9__gnu_cxx17__normal_iteratorIPcS1_EEDpOT_:
.LFB2443:
	.loc 9 413 7
	.cfi_startproc
	pushq	%rbp
	.seh_pushreg	%rbp
	.cfi_def_cfa_offset 16
	.cfi_offset 6, -16
	pushq	%rbx
	.seh_pushreg	%rbx
	.cfi_def_cfa_offset 24
	.cfi_offset 3, -24
	subq	$104, %rsp
	.seh_stackalloc	104
	.cfi_def_cfa_offset 128
	leaq	128(%rsp), %rbp
	.seh_setframe	%rbp, 128
	.cfi_def_cfa 6, 0
	.seh_endprologue
	movq	%rcx, 0(%rbp)
	movq	%rdx, 8(%rbp)
	movq	%r8, 16(%rbp)
	.loc 9 422 23
	leaq	.LC5(%rip), %r8
	movl	$1, %edx
	movq	0(%rbp), %rcx
.LEHB7:
	call	_ZNKSt6vectorIcSaIcEE12_M_check_lenEyPKc
	movq	%rax, -48(%rbp)
	.loc 9 424 15
	movq	0(%rbp), %rax
	movq	(%rax), %rax
	movq	%rax, -56(%rbp)
	.loc 9 425 15
	movq	0(%rbp), %rax
	movq	8(%rax), %rax
	movq	%rax, -64(%rbp)
	.loc 9 426 51
	movq	0(%rbp), %rcx
	call	_ZNSt6vectorIcSaIcEE5beginEv
	movq	%rax, -88(%rbp)
	leaq	-88(%rbp), %rdx
	leaq	8(%rbp), %rax
	movq	%rax, %rcx
	call	_ZN9__gnu_cxxmiIPcSt6vectorIcSaIcEEEENS_17__normal_iteratorIT_T0_E15difference_typeERKS8_SB_
	.loc 9 426 23
	movq	%rax, -72(%rbp)
	.loc 9 427 15
	movq	0(%rbp), %rax
	movq	-48(%rbp), %rdx
	movq	%rax, %rcx
	call	_ZNSt12_Vector_baseIcSaIcEE11_M_allocateEy
.LEHE7:
	movq	%rax, -80(%rbp)
	.loc 9 428 15
	movq	-80(%rbp), %rax
	movq	%rax, -40(%rbp)
	.loc 9 436 28
	movq	16(%rbp), %rax
	movq	%rax, %rcx
	call	_ZSt7forwardIcEOT_RNSt16remove_referenceIS0_E4typeE
	movq	%rax, %rcx
	movq	-80(%rbp), %rdx
	movq	-72(%rbp), %rax
	addq	%rax, %rdx
	.loc 9 436 35
	movq	0(%rbp), %rax
	.loc 9 436 28
	movq	%rcx, %r8
	movq	%rax, %rcx
	call	_ZNSt16allocator_traitsISaIcEE9constructIcJcEEEvRS0_PT_DpOT0_
	.loc 9 443 4
	movq	$0, -40(%rbp)
	.loc 9 448 39
	movq	0(%rbp), %rax
	movq	%rax, %rcx
	call	_ZNSt12_Vector_baseIcSaIcEE19_M_get_Tp_allocatorEv
	movq	%rax, %rbx
	.loc 9 447 6
	leaq	8(%rbp), %rax
	movq	%rax, %rcx
	call	_ZNK9__gnu_cxx17__normal_iteratorIPcSt6vectorIcSaIcEEE4baseEv
	movq	(%rax), %rdx
	movq	-80(%rbp), %rcx
	movq	-56(%rbp), %rax
	movq	%rbx, %r9
	movq	%rcx, %r8
	movq	%rax, %rcx
.LEHB8:
	call	_ZSt34__uninitialized_move_if_noexcept_aIPcS0_SaIcEET0_T_S3_S2_RT1_
	movq	%rax, -40(%rbp)
	.loc 9 450 4
	addq	$1, -40(%rbp)
	.loc 9 455 40
	movq	0(%rbp), %rax
	movq	%rax, %rcx
	call	_ZNSt12_Vector_baseIcSaIcEE19_M_get_Tp_allocatorEv
	movq	%rax, %rbx
	.loc 9 454 6
	leaq	8(%rbp), %rax
	movq	%rax, %rcx
	call	_ZNK9__gnu_cxx17__normal_iteratorIPcSt6vectorIcSaIcEEE4baseEv
	movq	(%rax), %rax
	movq	-40(%rbp), %rcx
	movq	-64(%rbp), %rdx
	movq	%rbx, %r9
	movq	%rcx, %r8
	movq	%rax, %rcx
	call	_ZSt34__uninitialized_move_if_noexcept_aIPcS0_SaIcEET0_T_S3_S2_RT1_
.LEHE8:
	.loc 9 454 6 is_stmt 0 discriminator 1
	movq	%rax, -40(%rbp)
	.loc 9 468 67 is_stmt 1 discriminator 1
	movq	0(%rbp), %rax
	movq	%rax, %rcx
	call	_ZNSt12_Vector_baseIcSaIcEE19_M_get_Tp_allocatorEv
	movq	%rax, %rcx
	.loc 9 468 20 discriminator 1
	movq	-64(%rbp), %rdx
	movq	-56(%rbp), %rax
	movq	%rcx, %r8
	movq	%rax, %rcx
.LEHB9:
	call	_ZSt8_DestroyIPccEvT_S1_RSaIT0_E
	.loc 9 469 20 discriminator 1
	movq	0(%rbp), %rax
	.loc 9 470 21 discriminator 1
	movq	0(%rbp), %rdx
	movq	16(%rdx), %rdx
	.loc 9 470 39 discriminator 1
	subq	-56(%rbp), %rdx
	.loc 9 469 20 discriminator 1
	movq	%rdx, %rcx
	movq	-56(%rbp), %rdx
	movq	%rcx, %r8
	movq	%rax, %rcx
	call	_ZNSt12_Vector_baseIcSaIcEE13_M_deallocateEPcy
.LEHE9:
	.loc 9 471 7 discriminator 1
	movq	0(%rbp), %rax
	movq	-80(%rbp), %rdx
	movq	%rdx, (%rax)
	.loc 9 472 7 discriminator 1
	movq	0(%rbp), %rax
	movq	-40(%rbp), %rdx
	movq	%rdx, 8(%rax)
	.loc 9 473 53 discriminator 1
	movq	-80(%rbp), %rdx
	movq	-48(%rbp), %rax
	addq	%rax, %rdx
	.loc 9 473 7 discriminator 1
	movq	0(%rbp), %rax
	movq	%rdx, 16(%rax)
	.loc 9 474 5 discriminator 1
	jmp	.L90
.L88:
	.loc 9 457 7
	movq	%rax, %rcx
	call	__cxa_begin_catch
	.loc 9 459 4
	cmpq	$0, -40(%rbp)
	jne	.L85
	.loc 9 460 28
	movq	-80(%rbp), %rdx
	movq	-72(%rbp), %rax
	addq	%rax, %rdx
	.loc 9 460 35
	movq	0(%rbp), %rax
	.loc 9 460 28
	movq	%rax, %rcx
.LEHB10:
	call	_ZNSt16allocator_traitsISaIcEE7destroyIcEEvRS0_PT_
	jmp	.L86
.L85:
	.loc 9 463 66
	movq	0(%rbp), %rax
	movq	%rax, %rcx
	call	_ZNSt12_Vector_baseIcSaIcEE19_M_get_Tp_allocatorEv
	movq	%rax, %rcx
	.loc 9 463 19
	movq	-40(%rbp), %rdx
	movq	-80(%rbp), %rax
	movq	%rcx, %r8
	movq	%rax, %rcx
	call	_ZSt8_DestroyIPccEvT_S1_RSaIT0_E
.L86:
	.loc 9 464 17
	movq	0(%rbp), %rax
	movq	-48(%rbp), %rcx
	movq	-80(%rbp), %rdx
	movq	%rcx, %r8
	movq	%rax, %rcx
	call	_ZNSt12_Vector_baseIcSaIcEE13_M_deallocateEPcy
	.loc 9 465 4
	call	__cxa_rethrow
.LEHE10:
.L89:
	movq	%rax, %rbx
	.loc 9 457 7
	call	__cxa_end_catch
	movq	%rbx, %rax
	movq	%rax, %rcx
.LEHB11:
	call	_Unwind_Resume
	nop
.LEHE11:
.L90:
	.loc 9 474 5
	addq	$104, %rsp
	popq	%rbx
	.cfi_restore 3
	popq	%rbp
	.cfi_restore 6
	.cfi_def_cfa 7, -88
	ret
	.cfi_endproc
.LFE2443:
	.seh_handler	__gxx_personality_seh0, @unwind, @except
	.seh_handlerdata
	.align 4
.LLSDA2443:
	.byte	0xff
	.byte	0x9b
	.uleb128 .LLSDATT2443-.LLSDATTD2443
.LLSDATTD2443:
	.byte	0x1
	.uleb128 .LLSDACSE2443-.LLSDACSB2443
.LLSDACSB2443:
	.uleb128 .LEHB7-.LFB2443
	.uleb128 .LEHE7-.LEHB7
	.uleb128 0
	.uleb128 0
	.uleb128 .LEHB8-.LFB2443
	.uleb128 .LEHE8-.LEHB8
	.uleb128 .L88-.LFB2443
	.uleb128 0x1
	.uleb128 .LEHB9-.LFB2443
	.uleb128 .LEHE9-.LEHB9
	.uleb128 0
	.uleb128 0
	.uleb128 .LEHB10-.LFB2443
	.uleb128 .LEHE10-.LEHB10
	.uleb128 .L89-.LFB2443
	.uleb128 0
	.uleb128 .LEHB11-.LFB2443
	.uleb128 .LEHE11-.LEHB11
	.uleb128 0
	.uleb128 0
.LLSDACSE2443:
	.byte	0x1
	.byte	0
	.align 4
	.long	0

.LLSDATT2443:
	.section	.text$_ZNSt6vectorIcSaIcEE17_M_realloc_insertIJcEEEvN9__gnu_cxx17__normal_iteratorIPcS1_EEDpOT_,"x"
	.linkonce discard
	.seh_endproc
	.section	.text$_ZNSt12_Vector_baseIcSaIcEE12_Vector_implC1Ev,"x"
	.linkonce discard
	.align 2
	.globl	_ZNSt12_Vector_baseIcSaIcEE12_Vector_implC1Ev
	.def	_ZNSt12_Vector_baseIcSaIcEE12_Vector_implC1Ev;	.scl	2;	.type	32;	.endef
	.seh_proc	_ZNSt12_Vector_baseIcSaIcEE12_Vector_implC1Ev
_ZNSt12_Vector_baseIcSaIcEE12_Vector_implC1Ev:
.LFB2446:
	.loc 6 95 2
	.cfi_startproc
	pushq	%rbp
	.seh_pushreg	%rbp
	.cfi_def_cfa_offset 16
	.cfi_offset 6, -16
	movq	%rsp, %rbp
	.seh_setframe	%rbp, 0
	.cfi_def_cfa_register 6
	subq	$32, %rsp
	.seh_stackalloc	32
	.seh_endprologue
	movq	%rcx, 16(%rbp)
.LBB13:
	.loc 6 96 65
	movq	16(%rbp), %rcx
	call	_ZNSaIcEC2Ev
	movq	16(%rbp), %rax
	movq	$0, (%rax)
	movq	16(%rbp), %rax
	movq	$0, 8(%rax)
	movq	16(%rbp), %rax
	movq	$0, 16(%rax)
.LBE13:
	.loc 6 97 4
	nop
	addq	$32, %rsp
	popq	%rbp
	.cfi_restore 6
	.cfi_def_cfa 7, 8
	ret
	.cfi_endproc
.LFE2446:
	.seh_endproc
	.section	.text$_ZNSt12_Vector_baseIcSaIcEE13_M_deallocateEPcy,"x"
	.linkonce discard
	.align 2
	.globl	_ZNSt12_Vector_baseIcSaIcEE13_M_deallocateEPcy
	.def	_ZNSt12_Vector_baseIcSaIcEE13_M_deallocateEPcy;	.scl	2;	.type	32;	.endef
	.seh_proc	_ZNSt12_Vector_baseIcSaIcEE13_M_deallocateEPcy
_ZNSt12_Vector_baseIcSaIcEE13_M_deallocateEPcy:
.LFB2447:
	.loc 6 300 7
	.cfi_startproc
	pushq	%rbp
	.seh_pushreg	%rbp
	.cfi_def_cfa_offset 16
	.cfi_offset 6, -16
	movq	%rsp, %rbp
	.seh_setframe	%rbp, 0
	.cfi_def_cfa_register 6
	subq	$32, %rsp
	.seh_stackalloc	32
	.seh_endprologue
	movq	%rcx, 16(%rbp)
	movq	%rdx, 24(%rbp)
	movq	%r8, 32(%rbp)
	.loc 6 303 2
	cmpq	$0, 24(%rbp)
	je	.L94
	.loc 6 304 20
	movq	16(%rbp), %rax
	.loc 6 304 19
	movq	32(%rbp), %rcx
	movq	24(%rbp), %rdx
	movq	%rcx, %r8
	movq	%rax, %rcx
	call	_ZNSt16allocator_traitsISaIcEE10deallocateERS0_Pcy
.L94:
	.loc 6 305 7
	nop
	addq	$32, %rsp
	popq	%rbp
	.cfi_restore 6
	.cfi_def_cfa 7, 8
	ret
	.cfi_endproc
.LFE2447:
	.seh_endproc
	.section	.text$_ZSt8_DestroyIPcEvT_S1_,"x"
	.linkonce discard
	.globl	_ZSt8_DestroyIPcEvT_S1_
	.def	_ZSt8_DestroyIPcEvT_S1_;	.scl	2;	.type	32;	.endef
	.seh_proc	_ZSt8_DestroyIPcEvT_S1_
_ZSt8_DestroyIPcEvT_S1_:
.LFB2448:
	.loc 10 127 5
	.cfi_startproc
	pushq	%rbp
	.seh_pushreg	%rbp
	.cfi_def_cfa_offset 16
	.cfi_offset 6, -16
	movq	%rsp, %rbp
	.seh_setframe	%rbp, 0
	.cfi_def_cfa_register 6
	subq	$32, %rsp
	.seh_stackalloc	32
	.seh_endprologue
	movq	%rcx, 16(%rbp)
	movq	%rdx, 24(%rbp)
	.loc 10 137 11
	movq	24(%rbp), %rax
	movq	%rax, %rdx
	movq	16(%rbp), %rcx
	call	_ZNSt12_Destroy_auxILb1EE9__destroyIPcEEvT_S3_
	.loc 10 138 5
	nop
	addq	$32, %rsp
	popq	%rbp
	.cfi_restore 6
	.cfi_def_cfa 7, 8
	ret
	.cfi_endproc
.LFE2448:
	.seh_endproc
	.section	.text$_ZNSt16allocator_traitsISaIcEE10deallocateERS0_Pcy,"x"
	.linkonce discard
	.globl	_ZNSt16allocator_traitsISaIcEE10deallocateERS0_Pcy
	.def	_ZNSt16allocator_traitsISaIcEE10deallocateERS0_Pcy;	.scl	2;	.type	32;	.endef
	.seh_proc	_ZNSt16allocator_traitsISaIcEE10deallocateERS0_Pcy
_ZNSt16allocator_traitsISaIcEE10deallocateERS0_Pcy:
.LFB2450:
	.loc 11 461 7
	.cfi_startproc
	pushq	%rbp
	.seh_pushreg	%rbp
	.cfi_def_cfa_offset 16
	.cfi_offset 6, -16
	movq	%rsp, %rbp
	.seh_setframe	%rbp, 0
	.cfi_def_cfa_register 6
	subq	$32, %rsp
	.seh_stackalloc	32
	.seh_endprologue
	movq	%rcx, 16(%rbp)
	movq	%rdx, 24(%rbp)
	movq	%r8, 32(%rbp)
	.loc 11 462 9
	movq	32(%rbp), %rdx
	movq	24(%rbp), %rax
	movq	%rdx, %r8
	movq	%rax, %rdx
	movq	16(%rbp), %rcx
	call	_ZN9__gnu_cxx13new_allocatorIcE10deallocateEPcy
	.loc 11 462 35
	nop
	addq	$32, %rsp
	popq	%rbp
	.cfi_restore 6
	.cfi_def_cfa 7, 8
	ret
	.cfi_endproc
.LFE2450:
	.seh_endproc
	.section	.text$_ZN9__gnu_cxx13new_allocatorIcE9constructIcJcEEEvPT_DpOT0_,"x"
	.linkonce discard
	.align 2
	.globl	_ZN9__gnu_cxx13new_allocatorIcE9constructIcJcEEEvPT_DpOT0_
	.def	_ZN9__gnu_cxx13new_allocatorIcE9constructIcJcEEEvPT_DpOT0_;	.scl	2;	.type	32;	.endef
	.seh_proc	_ZN9__gnu_cxx13new_allocatorIcE9constructIcJcEEEvPT_DpOT0_
_ZN9__gnu_cxx13new_allocatorIcE9constructIcJcEEEvPT_DpOT0_:
.LFB2483:
	.file 12 "E:/Code_Lib/compilers/mingw64/lib/gcc/x86_64-w64-mingw32/8.1.0/include/c++/ext/new_allocator.h"
	.loc 12 135 2
	.cfi_startproc
	pushq	%rbp
	.seh_pushreg	%rbp
	.cfi_def_cfa_offset 16
	.cfi_offset 6, -16
	pushq	%rbx
	.seh_pushreg	%rbx
	.cfi_def_cfa_offset 24
	.cfi_offset 3, -24
	subq	$40, %rsp
	.seh_stackalloc	40
	.cfi_def_cfa_offset 64
	leaq	128(%rsp), %rbp
	.seh_setframe	%rbp, 128
	.cfi_def_cfa 6, -64
	.seh_endprologue
	movq	%rcx, -64(%rbp)
	movq	%rdx, -56(%rbp)
	movq	%r8, -48(%rbp)
	.loc 12 136 46
	movq	-48(%rbp), %rax
	movq	%rax, %rcx
	call	_ZSt7forwardIcEOT_RNSt16remove_referenceIS0_E4typeE
	.loc 12 136 4
	movzbl	(%rax), %ebx
	movq	-56(%rbp), %rax
	movq	%rax, %rdx
	movl	$1, %ecx
	call	_ZnwyPv
	movb	%bl, (%rax)
	.loc 12 136 60
	nop
	addq	$40, %rsp
	popq	%rbx
	.cfi_restore 3
	popq	%rbp
	.cfi_restore 6
	.cfi_def_cfa 7, -24
	ret
	.cfi_endproc
.LFE2483:
	.seh_endproc
	.section	.text$_ZNKSt6vectorIcSaIcEE12_M_check_lenEyPKc,"x"
	.linkonce discard
	.align 2
	.globl	_ZNKSt6vectorIcSaIcEE12_M_check_lenEyPKc
	.def	_ZNKSt6vectorIcSaIcEE12_M_check_lenEyPKc;	.scl	2;	.type	32;	.endef
	.seh_proc	_ZNKSt6vectorIcSaIcEE12_M_check_lenEyPKc
_ZNKSt6vectorIcSaIcEE12_M_check_lenEyPKc:
.LFB2484:
	.loc 6 1635 7
	.cfi_startproc
	pushq	%rbp
	.seh_pushreg	%rbp
	.cfi_def_cfa_offset 16
	.cfi_offset 6, -16
	pushq	%rbx
	.seh_pushreg	%rbx
	.cfi_def_cfa_offset 24
	.cfi_offset 3, -24
	subq	$56, %rsp
	.seh_stackalloc	56
	.cfi_def_cfa_offset 80
	leaq	128(%rsp), %rbp
	.seh_setframe	%rbp, 128
	.cfi_def_cfa 6, -48
	.seh_endprologue
	movq	%rcx, -48(%rbp)
	movq	%rdx, -40(%rbp)
	movq	%r8, -32(%rbp)
	.loc 6 1637 17
	movq	-48(%rbp), %rcx
	call	_ZNKSt6vectorIcSaIcEE8max_sizeEv
	movq	%rax, %rbx
	movq	-48(%rbp), %rcx
	call	_ZNKSt6vectorIcSaIcEE4sizeEv
	subq	%rax, %rbx
	movq	%rbx, %rdx
	.loc 6 1637 26
	movq	-40(%rbp), %rax
	cmpq	%rax, %rdx
	setb	%al
	.loc 6 1637 2
	testb	%al, %al
	je	.L99
	.loc 6 1638 24
	movq	-32(%rbp), %rax
	movq	%rax, %rcx
	call	_ZSt20__throw_length_errorPKc
.L99:
	.loc 6 1640 33
	movq	-48(%rbp), %rcx
	call	_ZNKSt6vectorIcSaIcEE4sizeEv
	movq	%rax, %rbx
	.loc 6 1640 43
	movq	-48(%rbp), %rcx
	call	_ZNKSt6vectorIcSaIcEE4sizeEv
	movq	%rax, -96(%rbp)
	leaq	-40(%rbp), %rdx
	leaq	-96(%rbp), %rax
	movq	%rax, %rcx
	call	_ZSt3maxIyERKT_S2_S2_
	.loc 6 1640 33
	movq	(%rax), %rax
	.loc 6 1640 18
	addq	%rbx, %rax
	movq	%rax, -88(%rbp)
	.loc 6 1641 16
	movq	-48(%rbp), %rcx
	call	_ZNKSt6vectorIcSaIcEE4sizeEv
	.loc 6 1641 48
	cmpq	%rax, -88(%rbp)
	jb	.L100
	.loc 6 1641 34 discriminator 2
	movq	-48(%rbp), %rcx
	call	_ZNKSt6vectorIcSaIcEE8max_sizeEv
	.loc 6 1641 25 discriminator 2
	cmpq	%rax, -88(%rbp)
	jbe	.L101
.L100:
	.loc 6 1641 48 discriminator 3
	movq	-48(%rbp), %rcx
	call	_ZNKSt6vectorIcSaIcEE8max_sizeEv
	jmp	.L102
.L101:
	.loc 6 1641 48 is_stmt 0 discriminator 4
	movq	-88(%rbp), %rax
.L102:
	.loc 6 1642 7 is_stmt 1 discriminator 6
	addq	$56, %rsp
	popq	%rbx
	.cfi_restore 3
	popq	%rbp
	.cfi_restore 6
	.cfi_def_cfa 7, -40
	ret
	.cfi_endproc
.LFE2484:
	.seh_endproc
	.section	.text$_ZN9__gnu_cxxmiIPcSt6vectorIcSaIcEEEENS_17__normal_iteratorIT_T0_E15difference_typeERKS8_SB_,"x"
	.linkonce discard
	.globl	_ZN9__gnu_cxxmiIPcSt6vectorIcSaIcEEEENS_17__normal_iteratorIT_T0_E15difference_typeERKS8_SB_
	.def	_ZN9__gnu_cxxmiIPcSt6vectorIcSaIcEEEENS_17__normal_iteratorIT_T0_E15difference_typeERKS8_SB_;	.scl	2;	.type	32;	.endef
	.seh_proc	_ZN9__gnu_cxxmiIPcSt6vectorIcSaIcEEEENS_17__normal_iteratorIT_T0_E15difference_typeERKS8_SB_
_ZN9__gnu_cxxmiIPcSt6vectorIcSaIcEEEENS_17__normal_iteratorIT_T0_E15difference_typeERKS8_SB_:
.LFB2485:
	.loc 7 963 5
	.cfi_startproc
	pushq	%rbp
	.seh_pushreg	%rbp
	.cfi_def_cfa_offset 16
	.cfi_offset 6, -16
	pushq	%rbx
	.seh_pushreg	%rbx
	.cfi_def_cfa_offset 24
	.cfi_offset 3, -24
	subq	$40, %rsp
	.seh_stackalloc	40
	.cfi_def_cfa_offset 64
	leaq	128(%rsp), %rbp
	.seh_setframe	%rbp, 128
	.cfi_def_cfa 6, -64
	.seh_endprologue
	movq	%rcx, -64(%rbp)
	movq	%rdx, -56(%rbp)
	.loc 7 966 27
	movq	-64(%rbp), %rcx
	call	_ZNK9__gnu_cxx17__normal_iteratorIPcSt6vectorIcSaIcEEE4baseEv
	movq	(%rax), %rbx
	movq	-56(%rbp), %rax
	movq	%rax, %rcx
	call	_ZNK9__gnu_cxx17__normal_iteratorIPcSt6vectorIcSaIcEEE4baseEv
	movq	(%rax), %rax
	.loc 7 966 40
	subq	%rax, %rbx
	movq	%rbx, %rax
	.loc 7 966 43
	addq	$40, %rsp
	popq	%rbx
	.cfi_restore 3
	popq	%rbp
	.cfi_restore 6
	.cfi_def_cfa 7, -24
	ret
	.cfi_endproc
.LFE2485:
	.seh_endproc
	.section	.text$_ZNSt12_Vector_baseIcSaIcEE11_M_allocateEy,"x"
	.linkonce discard
	.align 2
	.globl	_ZNSt12_Vector_baseIcSaIcEE11_M_allocateEy
	.def	_ZNSt12_Vector_baseIcSaIcEE11_M_allocateEy;	.scl	2;	.type	32;	.endef
	.seh_proc	_ZNSt12_Vector_baseIcSaIcEE11_M_allocateEy
_ZNSt12_Vector_baseIcSaIcEE11_M_allocateEy:
.LFB2486:
	.loc 6 293 7
	.cfi_startproc
	pushq	%rbp
	.seh_pushreg	%rbp
	.cfi_def_cfa_offset 16
	.cfi_offset 6, -16
	movq	%rsp, %rbp
	.seh_setframe	%rbp, 0
	.cfi_def_cfa_register 6
	subq	$32, %rsp
	.seh_stackalloc	32
	.seh_endprologue
	movq	%rcx, 16(%rbp)
	movq	%rdx, 24(%rbp)
	.loc 6 296 18
	cmpq	$0, 24(%rbp)
	je	.L107
	.loc 6 296 34 discriminator 1
	movq	16(%rbp), %rax
	.loc 6 296 33 discriminator 1
	movq	24(%rbp), %rdx
	movq	%rax, %rcx
	call	_ZNSt16allocator_traitsISaIcEE8allocateERS0_y
	.loc 6 296 58 discriminator 1
	jmp	.L109
.L107:
	.loc 6 296 18 discriminator 2
	movl	$0, %eax
.L109:
	.loc 6 297 7 discriminator 5
	addq	$32, %rsp
	popq	%rbp
	.cfi_restore 6
	.cfi_def_cfa 7, 8
	ret
	.cfi_endproc
.LFE2486:
	.seh_endproc
	.section	.text$_ZSt34__uninitialized_move_if_noexcept_aIPcS0_SaIcEET0_T_S3_S2_RT1_,"x"
	.linkonce discard
	.globl	_ZSt34__uninitialized_move_if_noexcept_aIPcS0_SaIcEET0_T_S3_S2_RT1_
	.def	_ZSt34__uninitialized_move_if_noexcept_aIPcS0_SaIcEET0_T_S3_S2_RT1_;	.scl	2;	.type	32;	.endef
	.seh_proc	_ZSt34__uninitialized_move_if_noexcept_aIPcS0_SaIcEET0_T_S3_S2_RT1_
_ZSt34__uninitialized_move_if_noexcept_aIPcS0_SaIcEET0_T_S3_S2_RT1_:
.LFB2487:
	.file 13 "E:/Code_Lib/compilers/mingw64/lib/gcc/x86_64-w64-mingw32/8.1.0/include/c++/bits/stl_uninitialized.h"
	.loc 13 305 5
	.cfi_startproc
	pushq	%rbp
	.seh_pushreg	%rbp
	.cfi_def_cfa_offset 16
	.cfi_offset 6, -16
	pushq	%rbx
	.seh_pushreg	%rbx
	.cfi_def_cfa_offset 24
	.cfi_offset 3, -24
	subq	$40, %rsp
	.seh_stackalloc	40
	.cfi_def_cfa_offset 64
	leaq	128(%rsp), %rbp
	.seh_setframe	%rbp, 128
	.cfi_def_cfa 6, -64
	.seh_endprologue
	movq	%rcx, -64(%rbp)
	movq	%rdx, -56(%rbp)
	movq	%r8, -48(%rbp)
	movq	%r9, -40(%rbp)
	.loc 13 311 2
	movq	-56(%rbp), %rax
	movq	%rax, %rcx
	call	_ZSt32__make_move_if_noexcept_iteratorIcSt13move_iteratorIPcEET0_PT_
	movq	%rax, %rbx
	movq	-64(%rbp), %rcx
	call	_ZSt32__make_move_if_noexcept_iteratorIcSt13move_iteratorIPcEET0_PT_
	movq	%rax, %rcx
	movq	-40(%rbp), %rdx
	movq	-48(%rbp), %rax
	movq	%rdx, %r9
	movq	%rax, %r8
	movq	%rbx, %rdx
	call	_ZSt22__uninitialized_copy_aISt13move_iteratorIPcES1_cET0_T_S4_S3_RSaIT1_E
	.loc 13 313 5
	addq	$40, %rsp
	popq	%rbx
	.cfi_restore 3
	popq	%rbp
	.cfi_restore 6
	.cfi_def_cfa 7, -24
	ret
	.cfi_endproc
.LFE2487:
	.seh_endproc
	.section	.text$_ZNSt16allocator_traitsISaIcEE7destroyIcEEvRS0_PT_,"x"
	.linkonce discard
	.globl	_ZNSt16allocator_traitsISaIcEE7destroyIcEEvRS0_PT_
	.def	_ZNSt16allocator_traitsISaIcEE7destroyIcEEvRS0_PT_;	.scl	2;	.type	32;	.endef
	.seh_proc	_ZNSt16allocator_traitsISaIcEE7destroyIcEEvRS0_PT_
_ZNSt16allocator_traitsISaIcEE7destroyIcEEvRS0_PT_:
.LFB2488:
	.loc 11 486 2
	.cfi_startproc
	pushq	%rbp
	.seh_pushreg	%rbp
	.cfi_def_cfa_offset 16
	.cfi_offset 6, -16
	movq	%rsp, %rbp
	.seh_setframe	%rbp, 0
	.cfi_def_cfa_register 6
	subq	$32, %rsp
	.seh_stackalloc	32
	.seh_endprologue
	movq	%rcx, 16(%rbp)
	movq	%rdx, 24(%rbp)
	.loc 11 487 4
	movq	24(%rbp), %rax
	movq	%rax, %rdx
	movq	16(%rbp), %rcx
	call	_ZN9__gnu_cxx13new_allocatorIcE7destroyIcEEvPT_
	.loc 11 487 22
	nop
	addq	$32, %rsp
	popq	%rbp
	.cfi_restore 6
	.cfi_def_cfa 7, 8
	ret
	.cfi_endproc
.LFE2488:
	.seh_endproc
	.section	.text$_ZNSt12_Destroy_auxILb1EE9__destroyIPcEEvT_S3_,"x"
	.linkonce discard
	.globl	_ZNSt12_Destroy_auxILb1EE9__destroyIPcEEvT_S3_
	.def	_ZNSt12_Destroy_auxILb1EE9__destroyIPcEEvT_S3_;	.scl	2;	.type	32;	.endef
	.seh_proc	_ZNSt12_Destroy_auxILb1EE9__destroyIPcEEvT_S3_
_ZNSt12_Destroy_auxILb1EE9__destroyIPcEEvT_S3_:
.LFB2489:
	.loc 10 117 9
	.cfi_startproc
	pushq	%rbp
	.seh_pushreg	%rbp
	.cfi_def_cfa_offset 16
	.cfi_offset 6, -16
	movq	%rsp, %rbp
	.seh_setframe	%rbp, 0
	.cfi_def_cfa_register 6
	.seh_endprologue
	movq	%rcx, 16(%rbp)
	movq	%rdx, 24(%rbp)
	.loc 10 117 57
	nop
	popq	%rbp
	.cfi_restore 6
	.cfi_def_cfa 7, 8
	ret
	.cfi_endproc
.LFE2489:
	.seh_endproc
	.section	.text$_ZN9__gnu_cxx13new_allocatorIcE10deallocateEPcy,"x"
	.linkonce discard
	.align 2
	.globl	_ZN9__gnu_cxx13new_allocatorIcE10deallocateEPcy
	.def	_ZN9__gnu_cxx13new_allocatorIcE10deallocateEPcy;	.scl	2;	.type	32;	.endef
	.seh_proc	_ZN9__gnu_cxx13new_allocatorIcE10deallocateEPcy
_ZN9__gnu_cxx13new_allocatorIcE10deallocateEPcy:
.LFB2491:
	.loc 12 116 7
	.cfi_startproc
	pushq	%rbp
	.seh_pushreg	%rbp
	.cfi_def_cfa_offset 16
	.cfi_offset 6, -16
	movq	%rsp, %rbp
	.seh_setframe	%rbp, 0
	.cfi_def_cfa_register 6
	subq	$32, %rsp
	.seh_stackalloc	32
	.seh_endprologue
	movq	%rcx, 16(%rbp)
	movq	%rdx, 24(%rbp)
	movq	%r8, 32(%rbp)
	.loc 12 125 19
	movq	24(%rbp), %rax
	movq	%rax, %rcx
	call	_ZdlPv
	.loc 12 126 7
	nop
	addq	$32, %rsp
	popq	%rbp
	.cfi_restore 6
	.cfi_def_cfa 7, 8
	ret
	.cfi_endproc
.LFE2491:
	.seh_endproc
	.section	.text$_ZNSt16allocator_traitsISaIcEE8max_sizeERKS0_,"x"
	.linkonce discard
	.globl	_ZNSt16allocator_traitsISaIcEE8max_sizeERKS0_
	.def	_ZNSt16allocator_traitsISaIcEE8max_sizeERKS0_;	.scl	2;	.type	32;	.endef
	.seh_proc	_ZNSt16allocator_traitsISaIcEE8max_sizeERKS0_
_ZNSt16allocator_traitsISaIcEE8max_sizeERKS0_:
.LFB2518:
	.loc 11 495 7
	.cfi_startproc
	pushq	%rbp
	.seh_pushreg	%rbp
	.cfi_def_cfa_offset 16
	.cfi_offset 6, -16
	movq	%rsp, %rbp
	.seh_setframe	%rbp, 0
	.cfi_def_cfa_register 6
	subq	$32, %rsp
	.seh_stackalloc	32
	.seh_endprologue
	movq	%rcx, 16(%rbp)
	.loc 11 496 29
	movq	16(%rbp), %rcx
	call	_ZNK9__gnu_cxx13new_allocatorIcE8max_sizeEv
	.loc 11 496 32
	addq	$32, %rsp
	popq	%rbp
	.cfi_restore 6
	.cfi_def_cfa 7, 8
	ret
	.cfi_endproc
.LFE2518:
	.seh_endproc
	.section	.text$_ZNKSt6vectorIcSaIcEE8max_sizeEv,"x"
	.linkonce discard
	.align 2
	.globl	_ZNKSt6vectorIcSaIcEE8max_sizeEv
	.def	_ZNKSt6vectorIcSaIcEE8max_sizeEv;	.scl	2;	.type	32;	.endef
	.seh_proc	_ZNKSt6vectorIcSaIcEE8max_sizeEv
_ZNKSt6vectorIcSaIcEE8max_sizeEv:
.LFB2519:
	.loc 6 810 7
	.cfi_startproc
	pushq	%rbp
	.seh_pushreg	%rbp
	.cfi_def_cfa_offset 16
	.cfi_offset 6, -16
	movq	%rsp, %rbp
	.seh_setframe	%rbp, 0
	.cfi_def_cfa_register 6
	subq	$32, %rsp
	.seh_stackalloc	32
	.seh_endprologue
	movq	%rcx, 16(%rbp)
	.loc 6 811 59
	movq	16(%rbp), %rax
	movq	%rax, %rcx
	call	_ZNKSt12_Vector_baseIcSaIcEE19_M_get_Tp_allocatorEv
	.loc 6 811 39
	movq	%rax, %rcx
	call	_ZNSt16allocator_traitsISaIcEE8max_sizeERKS0_
	.loc 6 811 64
	addq	$32, %rsp
	popq	%rbp
	.cfi_restore 6
	.cfi_def_cfa 7, 8
	ret
	.cfi_endproc
.LFE2519:
	.seh_endproc
	.section	.text$_ZNKSt6vectorIcSaIcEE4sizeEv,"x"
	.linkonce discard
	.align 2
	.globl	_ZNKSt6vectorIcSaIcEE4sizeEv
	.def	_ZNKSt6vectorIcSaIcEE4sizeEv;	.scl	2;	.type	32;	.endef
	.seh_proc	_ZNKSt6vectorIcSaIcEE4sizeEv
_ZNKSt6vectorIcSaIcEE4sizeEv:
.LFB2520:
	.loc 6 805 7
	.cfi_startproc
	pushq	%rbp
	.seh_pushreg	%rbp
	.cfi_def_cfa_offset 16
	.cfi_offset 6, -16
	movq	%rsp, %rbp
	.seh_setframe	%rbp, 0
	.cfi_def_cfa_register 6
	.seh_endprologue
	movq	%rcx, 16(%rbp)
	.loc 6 806 40
	movq	16(%rbp), %rax
	movq	8(%rax), %rdx
	.loc 6 806 66
	movq	16(%rbp), %rax
	movq	(%rax), %rax
	.loc 6 806 50
	subq	%rax, %rdx
	movq	%rdx, %rax
	.loc 6 806 77
	popq	%rbp
	.cfi_restore 6
	.cfi_def_cfa 7, 8
	ret
	.cfi_endproc
.LFE2520:
	.seh_endproc
	.section	.text$_ZSt3maxIyERKT_S2_S2_,"x"
	.linkonce discard
	.globl	_ZSt3maxIyERKT_S2_S2_
	.def	_ZSt3maxIyERKT_S2_S2_;	.scl	2;	.type	32;	.endef
	.seh_proc	_ZSt3maxIyERKT_S2_S2_
_ZSt3maxIyERKT_S2_S2_:
.LFB2521:
	.file 14 "E:/Code_Lib/compilers/mingw64/lib/gcc/x86_64-w64-mingw32/8.1.0/include/c++/bits/stl_algobase.h"
	.loc 14 219 5
	.cfi_startproc
	pushq	%rbp
	.seh_pushreg	%rbp
	.cfi_def_cfa_offset 16
	.cfi_offset 6, -16
	movq	%rsp, %rbp
	.seh_setframe	%rbp, 0
	.cfi_def_cfa_register 6
	.seh_endprologue
	movq	%rcx, 16(%rbp)
	movq	%rdx, 24(%rbp)
	.loc 14 224 15
	movq	16(%rbp), %rax
	movq	(%rax), %rdx
	movq	24(%rbp), %rax
	movq	(%rax), %rax
	.loc 14 224 7
	cmpq	%rax, %rdx
	jnb	.L122
	.loc 14 225 9
	movq	24(%rbp), %rax
	jmp	.L123
.L122:
	.loc 14 226 14
	movq	16(%rbp), %rax
.L123:
	.loc 14 227 5
	popq	%rbp
	.cfi_restore 6
	.cfi_def_cfa 7, 8
	ret
	.cfi_endproc
.LFE2521:
	.seh_endproc
	.section	.text$_ZNSt16allocator_traitsISaIcEE8allocateERS0_y,"x"
	.linkonce discard
	.globl	_ZNSt16allocator_traitsISaIcEE8allocateERS0_y
	.def	_ZNSt16allocator_traitsISaIcEE8allocateERS0_y;	.scl	2;	.type	32;	.endef
	.seh_proc	_ZNSt16allocator_traitsISaIcEE8allocateERS0_y
_ZNSt16allocator_traitsISaIcEE8allocateERS0_y:
.LFB2522:
	.loc 11 435 7
	.cfi_startproc
	pushq	%rbp
	.seh_pushreg	%rbp
	.cfi_def_cfa_offset 16
	.cfi_offset 6, -16
	movq	%rsp, %rbp
	.seh_setframe	%rbp, 0
	.cfi_def_cfa_register 6
	subq	$32, %rsp
	.seh_stackalloc	32
	.seh_endprologue
	movq	%rcx, 16(%rbp)
	movq	%rdx, 24(%rbp)
	.loc 11 436 32
	movq	24(%rbp), %rax
	movl	$0, %r8d
	movq	%rax, %rdx
	movq	16(%rbp), %rcx
	call	_ZN9__gnu_cxx13new_allocatorIcE8allocateEyPKv
	.loc 11 436 35
	addq	$32, %rsp
	popq	%rbp
	.cfi_restore 6
	.cfi_def_cfa 7, 8
	ret
	.cfi_endproc
.LFE2522:
	.seh_endproc
	.section	.text$_ZSt32__make_move_if_noexcept_iteratorIcSt13move_iteratorIPcEET0_PT_,"x"
	.linkonce discard
	.globl	_ZSt32__make_move_if_noexcept_iteratorIcSt13move_iteratorIPcEET0_PT_
	.def	_ZSt32__make_move_if_noexcept_iteratorIcSt13move_iteratorIPcEET0_PT_;	.scl	2;	.type	32;	.endef
	.seh_proc	_ZSt32__make_move_if_noexcept_iteratorIcSt13move_iteratorIPcEET0_PT_
_ZSt32__make_move_if_noexcept_iteratorIcSt13move_iteratorIPcEET0_PT_:
.LFB2523:
	.loc 7 1215 5
	.cfi_startproc
	pushq	%rbp
	.seh_pushreg	%rbp
	.cfi_def_cfa_offset 16
	.cfi_offset 6, -16
	movq	%rsp, %rbp
	.seh_setframe	%rbp, 0
	.cfi_def_cfa_register 6
	subq	$48, %rsp
	.seh_stackalloc	48
	.seh_endprologue
	movq	%rcx, 16(%rbp)
	.loc 7 1216 29
	leaq	-8(%rbp), %rax
	movq	16(%rbp), %rdx
	movq	%rax, %rcx
	call	_ZNSt13move_iteratorIPcEC1ES0_
	movq	-8(%rbp), %rax
	.loc 7 1216 32
	addq	$48, %rsp
	popq	%rbp
	.cfi_restore 6
	.cfi_def_cfa 7, 8
	ret
	.cfi_endproc
.LFE2523:
	.seh_endproc
	.section	.text$_ZSt22__uninitialized_copy_aISt13move_iteratorIPcES1_cET0_T_S4_S3_RSaIT1_E,"x"
	.linkonce discard
	.globl	_ZSt22__uninitialized_copy_aISt13move_iteratorIPcES1_cET0_T_S4_S3_RSaIT1_E
	.def	_ZSt22__uninitialized_copy_aISt13move_iteratorIPcES1_cET0_T_S4_S3_RSaIT1_E;	.scl	2;	.type	32;	.endef
	.seh_proc	_ZSt22__uninitialized_copy_aISt13move_iteratorIPcES1_cET0_T_S4_S3_RSaIT1_E
_ZSt22__uninitialized_copy_aISt13move_iteratorIPcES1_cET0_T_S4_S3_RSaIT1_E:
.LFB2524:
	.loc 13 287 5
	.cfi_startproc
	pushq	%rbp
	.seh_pushreg	%rbp
	.cfi_def_cfa_offset 16
	.cfi_offset 6, -16
	movq	%rsp, %rbp
	.seh_setframe	%rbp, 0
	.cfi_def_cfa_register 6
	subq	$32, %rsp
	.seh_stackalloc	32
	.seh_endprologue
	movq	%rcx, 16(%rbp)
	movq	%rdx, 24(%rbp)
	movq	%r8, 32(%rbp)
	movq	%r9, 40(%rbp)
	.loc 13 289 37
	movq	32(%rbp), %rdx
	movq	24(%rbp), %rax
	movq	%rdx, %r8
	movq	%rax, %rdx
	movq	16(%rbp), %rcx
	call	_ZSt18uninitialized_copyISt13move_iteratorIPcES1_ET0_T_S4_S3_
	.loc 13 289 66
	addq	$32, %rsp
	popq	%rbp
	.cfi_restore 6
	.cfi_def_cfa 7, 8
	ret
	.cfi_endproc
.LFE2524:
	.seh_endproc
	.section	.text$_ZN9__gnu_cxx13new_allocatorIcE7destroyIcEEvPT_,"x"
	.linkonce discard
	.align 2
	.globl	_ZN9__gnu_cxx13new_allocatorIcE7destroyIcEEvPT_
	.def	_ZN9__gnu_cxx13new_allocatorIcE7destroyIcEEvPT_;	.scl	2;	.type	32;	.endef
	.seh_proc	_ZN9__gnu_cxx13new_allocatorIcE7destroyIcEEvPT_
_ZN9__gnu_cxx13new_allocatorIcE7destroyIcEEvPT_:
.LFB2525:
	.loc 12 140 2
	.cfi_startproc
	pushq	%rbp
	.seh_pushreg	%rbp
	.cfi_def_cfa_offset 16
	.cfi_offset 6, -16
	movq	%rsp, %rbp
	.seh_setframe	%rbp, 0
	.cfi_def_cfa_register 6
	.seh_endprologue
	movq	%rcx, 16(%rbp)
	movq	%rdx, 24(%rbp)
	.loc 12 140 35
	nop
	popq	%rbp
	.cfi_restore 6
	.cfi_def_cfa 7, 8
	ret
	.cfi_endproc
.LFE2525:
	.seh_endproc
	.section	.text$_ZNK9__gnu_cxx13new_allocatorIcE8max_sizeEv,"x"
	.linkonce discard
	.align 2
	.globl	_ZNK9__gnu_cxx13new_allocatorIcE8max_sizeEv
	.def	_ZNK9__gnu_cxx13new_allocatorIcE8max_sizeEv;	.scl	2;	.type	32;	.endef
	.seh_proc	_ZNK9__gnu_cxx13new_allocatorIcE8max_sizeEv
_ZNK9__gnu_cxx13new_allocatorIcE8max_sizeEv:
.LFB2552:
	.loc 12 129 7
	.cfi_startproc
	pushq	%rbp
	.seh_pushreg	%rbp
	.cfi_def_cfa_offset 16
	.cfi_offset 6, -16
	movq	%rsp, %rbp
	.seh_setframe	%rbp, 0
	.cfi_def_cfa_register 6
	.seh_endprologue
	movq	%rcx, 16(%rbp)
	.loc 12 130 39
	movq	$-1, %rax
	.loc 12 130 42
	popq	%rbp
	.cfi_restore 6
	.cfi_def_cfa 7, 8
	ret
	.cfi_endproc
.LFE2552:
	.seh_endproc
	.section	.text$_ZNKSt12_Vector_baseIcSaIcEE19_M_get_Tp_allocatorEv,"x"
	.linkonce discard
	.align 2
	.globl	_ZNKSt12_Vector_baseIcSaIcEE19_M_get_Tp_allocatorEv
	.def	_ZNKSt12_Vector_baseIcSaIcEE19_M_get_Tp_allocatorEv;	.scl	2;	.type	32;	.endef
	.seh_proc	_ZNKSt12_Vector_baseIcSaIcEE19_M_get_Tp_allocatorEv
_ZNKSt12_Vector_baseIcSaIcEE19_M_get_Tp_allocatorEv:
.LFB2553:
	.loc 6 241 7
	.cfi_startproc
	pushq	%rbp
	.seh_pushreg	%rbp
	.cfi_def_cfa_offset 16
	.cfi_offset 6, -16
	movq	%rsp, %rbp
	.seh_setframe	%rbp, 0
	.cfi_def_cfa_register 6
	.seh_endprologue
	movq	%rcx, 16(%rbp)
	.loc 6 242 66
	movq	16(%rbp), %rax
	.loc 6 242 69
	popq	%rbp
	.cfi_restore 6
	.cfi_def_cfa 7, 8
	ret
	.cfi_endproc
.LFE2553:
	.seh_endproc
	.section	.text$_ZN9__gnu_cxx13new_allocatorIcE8allocateEyPKv,"x"
	.linkonce discard
	.align 2
	.globl	_ZN9__gnu_cxx13new_allocatorIcE8allocateEyPKv
	.def	_ZN9__gnu_cxx13new_allocatorIcE8allocateEyPKv;	.scl	2;	.type	32;	.endef
	.seh_proc	_ZN9__gnu_cxx13new_allocatorIcE8allocateEyPKv
_ZN9__gnu_cxx13new_allocatorIcE8allocateEyPKv:
.LFB2554:
	.loc 12 99 7
	.cfi_startproc
	pushq	%rbp
	.seh_pushreg	%rbp
	.cfi_def_cfa_offset 16
	.cfi_offset 6, -16
	movq	%rsp, %rbp
	.seh_setframe	%rbp, 0
	.cfi_def_cfa_register 6
	subq	$32, %rsp
	.seh_stackalloc	32
	.seh_endprologue
	movq	%rcx, 16(%rbp)
	movq	%rdx, 24(%rbp)
	movq	%r8, 32(%rbp)
	.loc 12 101 10
	movq	16(%rbp), %rcx
	call	_ZNK9__gnu_cxx13new_allocatorIcE8max_sizeEv
	cmpq	%rax, 24(%rbp)
	seta	%al
	.loc 12 101 2
	testb	%al, %al
	je	.L136
	.loc 12 102 26
	call	_ZSt17__throw_bad_allocv
.L136:
	.loc 12 111 41
	movq	24(%rbp), %rax
	movq	%rax, %rcx
	call	_Znwy
	.loc 12 112 7
	addq	$32, %rsp
	popq	%rbp
	.cfi_restore 6
	.cfi_def_cfa 7, 8
	ret
	.cfi_endproc
.LFE2554:
	.seh_endproc
	.section	.text$_ZNSt13move_iteratorIPcEC1ES0_,"x"
	.linkonce discard
	.align 2
	.globl	_ZNSt13move_iteratorIPcEC1ES0_
	.def	_ZNSt13move_iteratorIPcEC1ES0_;	.scl	2;	.type	32;	.endef
	.seh_proc	_ZNSt13move_iteratorIPcEC1ES0_
_ZNSt13move_iteratorIPcEC1ES0_:
.LFB2557:
	.loc 7 1030 7
	.cfi_startproc
	pushq	%rbp
	.seh_pushreg	%rbp
	.cfi_def_cfa_offset 16
	.cfi_offset 6, -16
	movq	%rsp, %rbp
	.seh_setframe	%rbp, 0
	.cfi_def_cfa_register 6
	.seh_endprologue
	movq	%rcx, 16(%rbp)
	movq	%rdx, 24(%rbp)
.LBB14:
	.loc 7 1031 23
	movq	16(%rbp), %rax
	movq	24(%rbp), %rdx
	movq	%rdx, (%rax)
.LBE14:
	.loc 7 1031 27
	nop
	popq	%rbp
	.cfi_restore 6
	.cfi_def_cfa 7, 8
	ret
	.cfi_endproc
.LFE2557:
	.seh_endproc
	.section	.text$_ZSt18uninitialized_copyISt13move_iteratorIPcES1_ET0_T_S4_S3_,"x"
	.linkonce discard
	.globl	_ZSt18uninitialized_copyISt13move_iteratorIPcES1_ET0_T_S4_S3_
	.def	_ZSt18uninitialized_copyISt13move_iteratorIPcES1_ET0_T_S4_S3_;	.scl	2;	.type	32;	.endef
	.seh_proc	_ZSt18uninitialized_copyISt13move_iteratorIPcES1_ET0_T_S4_S3_
_ZSt18uninitialized_copyISt13move_iteratorIPcES1_ET0_T_S4_S3_:
.LFB2558:
	.loc 13 115 5
	.cfi_startproc
	pushq	%rbp
	.seh_pushreg	%rbp
	.cfi_def_cfa_offset 16
	.cfi_offset 6, -16
	movq	%rsp, %rbp
	.seh_setframe	%rbp, 0
	.cfi_def_cfa_register 6
	subq	$48, %rsp
	.seh_stackalloc	48
	.seh_endprologue
	movq	%rcx, 16(%rbp)
	movq	%rdx, 24(%rbp)
	movq	%r8, 32(%rbp)
	.loc 13 128 18
	movb	$1, -1(%rbp)
	.loc 13 134 15
	movq	32(%rbp), %rdx
	movq	24(%rbp), %rax
	movq	%rdx, %r8
	movq	%rax, %rdx
	movq	16(%rbp), %rcx
	call	_ZNSt20__uninitialized_copyILb1EE13__uninit_copyISt13move_iteratorIPcES3_EET0_T_S6_S5_
	.loc 13 135 5
	addq	$48, %rsp
	popq	%rbp
	.cfi_restore 6
	.cfi_def_cfa 7, 8
	ret
	.cfi_endproc
.LFE2558:
	.seh_endproc
	.section	.text$_ZNSt20__uninitialized_copyILb1EE13__uninit_copyISt13move_iteratorIPcES3_EET0_T_S6_S5_,"x"
	.linkonce discard
	.globl	_ZNSt20__uninitialized_copyILb1EE13__uninit_copyISt13move_iteratorIPcES3_EET0_T_S6_S5_
	.def	_ZNSt20__uninitialized_copyILb1EE13__uninit_copyISt13move_iteratorIPcES3_EET0_T_S6_S5_;	.scl	2;	.type	32;	.endef
	.seh_proc	_ZNSt20__uninitialized_copyILb1EE13__uninit_copyISt13move_iteratorIPcES3_EET0_T_S6_S5_
_ZNSt20__uninitialized_copyILb1EE13__uninit_copyISt13move_iteratorIPcES3_EET0_T_S6_S5_:
.LFB2569:
	.loc 13 99 9
	.cfi_startproc
	pushq	%rbp
	.seh_pushreg	%rbp
	.cfi_def_cfa_offset 16
	.cfi_offset 6, -16
	movq	%rsp, %rbp
	.seh_setframe	%rbp, 0
	.cfi_def_cfa_register 6
	subq	$32, %rsp
	.seh_stackalloc	32
	.seh_endprologue
	movq	%rcx, 16(%rbp)
	movq	%rdx, 24(%rbp)
	movq	%r8, 32(%rbp)
	.loc 13 101 27
	movq	32(%rbp), %rdx
	movq	24(%rbp), %rax
	movq	%rdx, %r8
	movq	%rax, %rdx
	movq	16(%rbp), %rcx
	call	_ZSt4copyISt13move_iteratorIPcES1_ET0_T_S4_S3_
	.loc 13 101 56
	addq	$32, %rsp
	popq	%rbp
	.cfi_restore 6
	.cfi_def_cfa 7, 8
	ret
	.cfi_endproc
.LFE2569:
	.seh_endproc
	.section	.text$_ZSt4copyISt13move_iteratorIPcES1_ET0_T_S4_S3_,"x"
	.linkonce discard
	.globl	_ZSt4copyISt13move_iteratorIPcES1_ET0_T_S4_S3_
	.def	_ZSt4copyISt13move_iteratorIPcES1_ET0_T_S4_S3_;	.scl	2;	.type	32;	.endef
	.seh_proc	_ZSt4copyISt13move_iteratorIPcES1_ET0_T_S4_S3_
_ZSt4copyISt13move_iteratorIPcES1_ET0_T_S4_S3_:
.LFB2572:
	.loc 14 446 5
	.cfi_startproc
	pushq	%rbp
	.seh_pushreg	%rbp
	.cfi_def_cfa_offset 16
	.cfi_offset 6, -16
	pushq	%rbx
	.seh_pushreg	%rbx
	.cfi_def_cfa_offset 24
	.cfi_offset 3, -24
	subq	$40, %rsp
	.seh_stackalloc	40
	.cfi_def_cfa_offset 64
	leaq	128(%rsp), %rbp
	.seh_setframe	%rbp, 128
	.cfi_def_cfa 6, -64
	.seh_endprologue
	movq	%rcx, -64(%rbp)
	movq	%rdx, -56(%rbp)
	movq	%r8, -48(%rbp)
	.loc 14 455 8
	movq	-56(%rbp), %rax
	movq	%rax, %rcx
	call	_ZSt12__miter_baseIPcEDTcl12__miter_basecldtfp_4baseEEESt13move_iteratorIT_E
	movq	%rax, %rbx
	movq	-64(%rbp), %rcx
	call	_ZSt12__miter_baseIPcEDTcl12__miter_basecldtfp_4baseEEESt13move_iteratorIT_E
	movq	%rax, %rcx
	movq	-48(%rbp), %rax
	movq	%rax, %r8
	movq	%rbx, %rdx
	call	_ZSt14__copy_move_a2ILb1EPcS0_ET1_T0_S2_S1_
	.loc 14 457 5
	addq	$40, %rsp
	popq	%rbx
	.cfi_restore 3
	popq	%rbp
	.cfi_restore 6
	.cfi_def_cfa 7, -24
	ret
	.cfi_endproc
.LFE2572:
	.seh_endproc
	.section	.text$_ZSt12__miter_baseIPcEDTcl12__miter_basecldtfp_4baseEEESt13move_iteratorIT_E,"x"
	.linkonce discard
	.globl	_ZSt12__miter_baseIPcEDTcl12__miter_basecldtfp_4baseEEESt13move_iteratorIT_E
	.def	_ZSt12__miter_baseIPcEDTcl12__miter_basecldtfp_4baseEEESt13move_iteratorIT_E;	.scl	2;	.type	32;	.endef
	.seh_proc	_ZSt12__miter_baseIPcEDTcl12__miter_basecldtfp_4baseEEESt13move_iteratorIT_E
_ZSt12__miter_baseIPcEDTcl12__miter_basecldtfp_4baseEEESt13move_iteratorIT_E:
.LFB2573:
	.loc 7 1235 5
	.cfi_startproc
	pushq	%rbp
	.seh_pushreg	%rbp
	.cfi_def_cfa_offset 16
	.cfi_offset 6, -16
	movq	%rsp, %rbp
	.seh_setframe	%rbp, 0
	.cfi_def_cfa_register 6
	subq	$32, %rsp
	.seh_stackalloc	32
	.seh_endprologue
	movq	%rcx, 16(%rbp)
	.loc 7 1237 26
	leaq	16(%rbp), %rcx
	call	_ZNKSt13move_iteratorIPcE4baseEv
	movq	%rax, %rcx
	call	_ZSt12__miter_baseIPcET_S1_
	.loc 7 1237 41
	addq	$32, %rsp
	popq	%rbp
	.cfi_restore 6
	.cfi_def_cfa 7, 8
	ret
	.cfi_endproc
.LFE2573:
	.seh_endproc
	.section	.text$_ZSt14__copy_move_a2ILb1EPcS0_ET1_T0_S2_S1_,"x"
	.linkonce discard
	.globl	_ZSt14__copy_move_a2ILb1EPcS0_ET1_T0_S2_S1_
	.def	_ZSt14__copy_move_a2ILb1EPcS0_ET1_T0_S2_S1_;	.scl	2;	.type	32;	.endef
	.seh_proc	_ZSt14__copy_move_a2ILb1EPcS0_ET1_T0_S2_S1_
_ZSt14__copy_move_a2ILb1EPcS0_ET1_T0_S2_S1_:
.LFB2574:
	.loc 14 420 5
	.cfi_startproc
	pushq	%rbp
	.seh_pushreg	%rbp
	.cfi_def_cfa_offset 16
	.cfi_offset 6, -16
	pushq	%rsi
	.seh_pushreg	%rsi
	.cfi_def_cfa_offset 24
	.cfi_offset 4, -24
	pushq	%rbx
	.seh_pushreg	%rbx
	.cfi_def_cfa_offset 32
	.cfi_offset 3, -32
	movq	%rsp, %rbp
	.seh_setframe	%rbp, 0
	.cfi_def_cfa_register 6
	subq	$32, %rsp
	.seh_stackalloc	32
	.seh_endprologue
	movq	%rcx, 32(%rbp)
	movq	%rdx, 40(%rbp)
	movq	%r8, 48(%rbp)
	.loc 14 422 45
	movq	48(%rbp), %rax
	movq	%rax, %rcx
	call	_ZSt12__niter_baseIPcET_S1_
	movq	%rax, %rsi
	movq	40(%rbp), %rax
	movq	%rax, %rcx
	call	_ZSt12__niter_baseIPcET_S1_
	movq	%rax, %rbx
	movq	32(%rbp), %rcx
	call	_ZSt12__niter_baseIPcET_S1_
	movq	%rsi, %r8
	movq	%rbx, %rdx
	movq	%rax, %rcx
	call	_ZSt13__copy_move_aILb1EPcS0_ET1_T0_S2_S1_
	.loc 14 425 5
	addq	$32, %rsp
	popq	%rbx
	.cfi_restore 3
	popq	%rsi
	.cfi_restore 4
	popq	%rbp
	.cfi_restore 6
	.cfi_def_cfa 7, 24
	ret
	.cfi_endproc
.LFE2574:
	.seh_endproc
	.section	.text$_ZNKSt13move_iteratorIPcE4baseEv,"x"
	.linkonce discard
	.align 2
	.globl	_ZNKSt13move_iteratorIPcE4baseEv
	.def	_ZNKSt13move_iteratorIPcE4baseEv;	.scl	2;	.type	32;	.endef
	.seh_proc	_ZNKSt13move_iteratorIPcE4baseEv
_ZNKSt13move_iteratorIPcE4baseEv:
.LFB2575:
	.loc 7 1039 7
	.cfi_startproc
	pushq	%rbp
	.seh_pushreg	%rbp
	.cfi_def_cfa_offset 16
	.cfi_offset 6, -16
	movq	%rsp, %rbp
	.seh_setframe	%rbp, 0
	.cfi_def_cfa_register 6
	.seh_endprologue
	movq	%rcx, 16(%rbp)
	.loc 7 1040 16
	movq	16(%rbp), %rax
	movq	(%rax), %rax
	.loc 7 1040 28
	popq	%rbp
	.cfi_restore 6
	.cfi_def_cfa 7, 8
	ret
	.cfi_endproc
.LFE2575:
	.seh_endproc
	.section	.text$_ZSt12__miter_baseIPcET_S1_,"x"
	.linkonce discard
	.globl	_ZSt12__miter_baseIPcET_S1_
	.def	_ZSt12__miter_baseIPcET_S1_;	.scl	2;	.type	32;	.endef
	.seh_proc	_ZSt12__miter_baseIPcET_S1_
_ZSt12__miter_baseIPcET_S1_:
.LFB2576:
	.file 15 "E:/Code_Lib/compilers/mingw64/lib/gcc/x86_64-w64-mingw32/8.1.0/include/c++/bits/cpp_type_traits.h"
	.loc 15 408 5
	.cfi_startproc
	pushq	%rbp
	.seh_pushreg	%rbp
	.cfi_def_cfa_offset 16
	.cfi_offset 6, -16
	movq	%rsp, %rbp
	.seh_setframe	%rbp, 0
	.cfi_def_cfa_register 6
	.seh_endprologue
	movq	%rcx, 16(%rbp)
	.loc 15 409 14
	movq	16(%rbp), %rax
	.loc 15 409 20
	popq	%rbp
	.cfi_restore 6
	.cfi_def_cfa 7, 8
	ret
	.cfi_endproc
.LFE2576:
	.seh_endproc
	.section	.text$_ZSt12__niter_baseIPcET_S1_,"x"
	.linkonce discard
	.globl	_ZSt12__niter_baseIPcET_S1_
	.def	_ZSt12__niter_baseIPcET_S1_;	.scl	2;	.type	32;	.endef
	.seh_proc	_ZSt12__niter_baseIPcET_S1_
_ZSt12__niter_baseIPcET_S1_:
.LFB2577:
	.loc 14 277 5
	.cfi_startproc
	pushq	%rbp
	.seh_pushreg	%rbp
	.cfi_def_cfa_offset 16
	.cfi_offset 6, -16
	movq	%rsp, %rbp
	.seh_setframe	%rbp, 0
	.cfi_def_cfa_register 6
	.seh_endprologue
	movq	%rcx, 16(%rbp)
	.loc 14 278 14
	movq	16(%rbp), %rax
	.loc 14 278 20
	popq	%rbp
	.cfi_restore 6
	.cfi_def_cfa 7, 8
	ret
	.cfi_endproc
.LFE2577:
	.seh_endproc
	.section	.text$_ZSt13__copy_move_aILb1EPcS0_ET1_T0_S2_S1_,"x"
	.linkonce discard
	.globl	_ZSt13__copy_move_aILb1EPcS0_ET1_T0_S2_S1_
	.def	_ZSt13__copy_move_aILb1EPcS0_ET1_T0_S2_S1_;	.scl	2;	.type	32;	.endef
	.seh_proc	_ZSt13__copy_move_aILb1EPcS0_ET1_T0_S2_S1_
_ZSt13__copy_move_aILb1EPcS0_ET1_T0_S2_S1_:
.LFB2578:
	.loc 14 375 5
	.cfi_startproc
	pushq	%rbp
	.seh_pushreg	%rbp
	.cfi_def_cfa_offset 16
	.cfi_offset 6, -16
	movq	%rsp, %rbp
	.seh_setframe	%rbp, 0
	.cfi_def_cfa_register 6
	subq	$48, %rsp
	.seh_stackalloc	48
	.seh_endprologue
	movq	%rcx, 16(%rbp)
	movq	%rdx, 24(%rbp)
	movq	%r8, 32(%rbp)
	.loc 14 380 18
	movb	$1, -1(%rbp)
	.loc 14 386 30
	movq	32(%rbp), %rdx
	movq	24(%rbp), %rax
	movq	%rdx, %r8
	movq	%rax, %rdx
	movq	16(%rbp), %rcx
	call	_ZNSt11__copy_moveILb1ELb1ESt26random_access_iterator_tagE8__copy_mIcEEPT_PKS3_S6_S4_
	.loc 14 387 5
	addq	$48, %rsp
	popq	%rbp
	.cfi_restore 6
	.cfi_def_cfa 7, 8
	ret
	.cfi_endproc
.LFE2578:
	.seh_endproc
	.section	.text$_ZNSt11__copy_moveILb1ELb1ESt26random_access_iterator_tagE8__copy_mIcEEPT_PKS3_S6_S4_,"x"
	.linkonce discard
	.globl	_ZNSt11__copy_moveILb1ELb1ESt26random_access_iterator_tagE8__copy_mIcEEPT_PKS3_S6_S4_
	.def	_ZNSt11__copy_moveILb1ELb1ESt26random_access_iterator_tagE8__copy_mIcEEPT_PKS3_S6_S4_;	.scl	2;	.type	32;	.endef
	.seh_proc	_ZNSt11__copy_moveILb1ELb1ESt26random_access_iterator_tagE8__copy_mIcEEPT_PKS3_S6_S4_
_ZNSt11__copy_moveILb1ELb1ESt26random_access_iterator_tagE8__copy_mIcEEPT_PKS3_S6_S4_:
.LFB2579:
	.loc 14 357 2
	.cfi_startproc
	pushq	%rbp
	.seh_pushreg	%rbp
	.cfi_def_cfa_offset 16
	.cfi_offset 6, -16
	movq	%rsp, %rbp
	.seh_setframe	%rbp, 0
	.cfi_def_cfa_register 6
	subq	$48, %rsp
	.seh_stackalloc	48
	.seh_endprologue
	movq	%rcx, 16(%rbp)
	movq	%rdx, 24(%rbp)
	movq	%r8, 32(%rbp)
	.loc 14 366 20
	movq	24(%rbp), %rax
	subq	16(%rbp), %rax
	movq	%rax, -8(%rbp)
	.loc 14 367 4
	cmpq	$0, -8(%rbp)
	je	.L158
	.loc 14 368 23
	movq	-8(%rbp), %rdx
	movq	32(%rbp), %rax
	movq	%rdx, %r8
	movq	16(%rbp), %rdx
	movq	%rax, %rcx
	call	memmove
.L158:
	.loc 14 369 20
	movq	-8(%rbp), %rdx
	.loc 14 369 22
	movq	32(%rbp), %rax
	addq	%rdx, %rax
	.loc 14 370 2
	addq	$48, %rsp
	popq	%rbp
	.cfi_restore 6
	.cfi_def_cfa 7, 8
	ret
	.cfi_endproc
.LFE2579:
	.seh_endproc
	.text
	.def	_Z41__static_initialization_and_destruction_0ii;	.scl	3;	.type	32;	.endef
	.seh_proc	_Z41__static_initialization_and_destruction_0ii
_Z41__static_initialization_and_destruction_0ii:
.LFB2580:
	.loc 5 24 1
	.cfi_startproc
	pushq	%rbp
	.seh_pushreg	%rbp
	.cfi_def_cfa_offset 16
	.cfi_offset 6, -16
	movq	%rsp, %rbp
	.seh_setframe	%rbp, 0
	.cfi_def_cfa_register 6
	.seh_endprologue
	movl	%ecx, 16(%rbp)
	movl	%edx, 24(%rbp)
	.loc 5 24 1
	cmpl	$1, 16(%rbp)
	jne	.L162
	.loc 5 24 1 is_stmt 0 discriminator 1
	cmpl	$65535, 24(%rbp)
	jne	.L162
	.loc 4 40 1 is_stmt 1
	movq	_ZN12_GLOBAL__N_121__pcall_move_describeE(%rip), %rax
	movq	%rax, 8+_ZN12_GLOBAL__N_111PCALL_TABLEE(%rip)
	movq	_ZN12_GLOBAL__N_127__pcall_arm_x_move_describeE(%rip), %rax
	movq	%rax, 32+_ZN12_GLOBAL__N_111PCALL_TABLEE(%rip)
	movq	_ZN12_GLOBAL__N_127__pcall_arm_z_move_describeE(%rip), %rax
	movq	%rax, 56+_ZN12_GLOBAL__N_111PCALL_TABLEE(%rip)
	movq	_ZN12_GLOBAL__N_127__pcall_arm_r_move_describeE(%rip), %rax
	movq	%rax, 80+_ZN12_GLOBAL__N_111PCALL_TABLEE(%rip)
.L162:
	.loc 5 24 1
	nop
	popq	%rbp
	.cfi_restore 6
	.cfi_def_cfa 7, 8
	ret
	.cfi_endproc
.LFE2580:
	.seh_endproc
	.def	_GLOBAL__sub_I__Z11test_clientPKcPh;	.scl	3;	.type	32;	.endef
	.seh_proc	_GLOBAL__sub_I__Z11test_clientPKcPh
_GLOBAL__sub_I__Z11test_clientPKcPh:
.LFB2581:
	.loc 5 24 1
	.cfi_startproc
	pushq	%rbp
	.seh_pushreg	%rbp
	.cfi_def_cfa_offset 16
	.cfi_offset 6, -16
	movq	%rsp, %rbp
	.seh_setframe	%rbp, 0
	.cfi_def_cfa_register 6
	subq	$32, %rsp
	.seh_stackalloc	32
	.seh_endprologue
	.loc 5 24 1
	movl	$65535, %edx
	movl	$1, %ecx
	call	_Z41__static_initialization_and_destruction_0ii
	nop
	addq	$32, %rsp
	popq	%rbp
	.cfi_restore 6
	.cfi_def_cfa 7, 8
	ret
	.cfi_endproc
.LFE2581:
	.seh_endproc
	.section	.ctors,"w"
	.align 8
	.quad	_GLOBAL__sub_I__Z11test_clientPKcPh
	.text
.Letext0:
	.file 16 "E:/Code_Lib/compilers/mingw64/lib/gcc/x86_64-w64-mingw32/8.1.0/include/c++/bits/basic_string.h"
	.file 17 "E:/Code_Lib/compilers/mingw64/lib/gcc/x86_64-w64-mingw32/8.1.0/include/c++/bits/basic_string.tcc"
	.file 18 "E:/Code_Lib/compilers/mingw64/lib/gcc/x86_64-w64-mingw32/8.1.0/include/c++/bits/stringfwd.h"
	.file 19 "E:/Code_Lib/compilers/mingw64/lib/gcc/x86_64-w64-mingw32/8.1.0/include/c++/cstdint"
	.file 20 "E:/Code_Lib/compilers/mingw64/lib/gcc/x86_64-w64-mingw32/8.1.0/include/c++/cstring"
	.file 21 "E:/Code_Lib/compilers/mingw64/lib/gcc/x86_64-w64-mingw32/8.1.0/include/c++/type_traits"
	.file 22 "E:/Code_Lib/compilers/mingw64/lib/gcc/x86_64-w64-mingw32/8.1.0/include/c++/bits/stl_pair.h"
	.file 23 "E:/Code_Lib/compilers/mingw64/lib/gcc/x86_64-w64-mingw32/8.1.0/include/c++/bits/stl_iterator_base_types.h"
	.file 24 "E:/Code_Lib/compilers/mingw64/lib/gcc/x86_64-w64-mingw32/8.1.0/include/c++/debug/debug.h"
	.file 25 "E:/Code_Lib/compilers/mingw64/lib/gcc/x86_64-w64-mingw32/8.1.0/include/c++/bits/exception_ptr.h"
	.file 26 "E:/Code_Lib/compilers/mingw64/lib/gcc/x86_64-w64-mingw32/8.1.0/include/c++/x86_64-w64-mingw32/bits/c++config.h"
	.file 27 "E:/Code_Lib/compilers/mingw64/lib/gcc/x86_64-w64-mingw32/8.1.0/include/c++/bits/allocator.h"
	.file 28 "E:/Code_Lib/compilers/mingw64/lib/gcc/x86_64-w64-mingw32/8.1.0/include/c++/cwchar"
	.file 29 "E:/Code_Lib/compilers/mingw64/lib/gcc/x86_64-w64-mingw32/8.1.0/include/c++/bits/char_traits.h"
	.file 30 "E:/Code_Lib/compilers/mingw64/lib/gcc/x86_64-w64-mingw32/8.1.0/include/c++/clocale"
	.file 31 "E:/Code_Lib/compilers/mingw64/lib/gcc/x86_64-w64-mingw32/8.1.0/include/c++/cstdlib"
	.file 32 "E:/Code_Lib/compilers/mingw64/lib/gcc/x86_64-w64-mingw32/8.1.0/include/c++/cstdio"
	.file 33 "E:/Code_Lib/compilers/mingw64/lib/gcc/x86_64-w64-mingw32/8.1.0/include/c++/initializer_list"
	.file 34 "E:/Code_Lib/compilers/mingw64/lib/gcc/x86_64-w64-mingw32/8.1.0/include/c++/system_error"
	.file 35 "E:/Code_Lib/compilers/mingw64/lib/gcc/x86_64-w64-mingw32/8.1.0/include/c++/cwctype"
	.file 36 "E:/Code_Lib/compilers/mingw64/lib/gcc/x86_64-w64-mingw32/8.1.0/include/c++/iosfwd"
	.file 37 "E:/Code_Lib/compilers/mingw64/lib/gcc/x86_64-w64-mingw32/8.1.0/include/c++/bits/stl_iterator_base_funcs.h"
	.file 38 "E:/Code_Lib/compilers/mingw64/lib/gcc/x86_64-w64-mingw32/8.1.0/include/c++/bits/predefined_ops.h"
	.file 39 "E:/Code_Lib/compilers/mingw64/lib/gcc/x86_64-w64-mingw32/8.1.0/include/c++/ext/numeric_traits.h"
	.file 40 "E:/Code_Lib/compilers/mingw64/lib/gcc/x86_64-w64-mingw32/8.1.0/include/c++/ext/alloc_traits.h"
	.file 41 "E:/Code_Lib/compilers/mingw64/lib/gcc/x86_64-w64-mingw32/8.1.0/include/c++/ext/type_traits.h"
	.file 42 "E:/Code_Lib/compilers/mingw64/x86_64-w64-mingw32/include/crtdefs.h"
	.file 43 "E:/Code_Lib/compilers/mingw64/x86_64-w64-mingw32/include/locale.h"
	.file 44 "E:/Code_Lib/compilers/mingw64/x86_64-w64-mingw32/include/stdint.h"
	.file 45 "E:/Code_Lib/compilers/mingw64/x86_64-w64-mingw32/include/string.h"
	.file 46 "E:/Code_Lib/compilers/mingw64/x86_64-w64-mingw32/include/wchar.h"
	.file 47 "E:/Code_Lib/compilers/mingw64/x86_64-w64-mingw32/include/swprintf.inl"
	.file 48 "E:/Code_Lib/compilers/mingw64/x86_64-w64-mingw32/include/ctype.h"
	.file 49 "E:/Code_Lib/compilers/mingw64/x86_64-w64-mingw32/include/process.h"
	.file 50 "E:/Code_Lib/compilers/mingw64/x86_64-w64-mingw32/include/pthread.h"
	.file 51 "E:/Code_Lib/compilers/mingw64/x86_64-w64-mingw32/include/stdlib.h"
	.file 52 "E:/Code_Lib/compilers/mingw64/x86_64-w64-mingw32/include/malloc.h"
	.file 53 "E:/Code_Lib/compilers/mingw64/x86_64-w64-mingw32/include/wctype.h"
	.file 54 "<built-in>"
	.file 55 "D:/Code-Lib/mmcar/controller/Modules/pcode/include/pcall_config.h"