	.file	"test_server.cpp"
	.text
.Ltext0:
	.cfi_sections	.debug_frame
	.section	.text$_Z6printfPKcz,"x"
	.linkonce discard
	.globl	_Z6printfPKcz
	.def	_Z6printfPKcz;	.scl	2;	.type	32;	.endef
	.seh_proc	_Z6printfPKcz
_Z6printfPKcz:
.LFB8:
	.file 1 "E:/Code_Lib/compilers/mingw64/x86_64-w64-mingw32/include/stdio.h"
	.loc 1 346 1
	.cfi_startproc
	pushq	%rbp
	.seh_pushreg	%rbp
	.cfi_def_cfa_offset 16
	.cfi_offset 6, -16
	pushq	%rbx
	.seh_pushreg	%rbx
	.cfi_def_cfa_offset 24
	.cfi_offset 3, -24
	subq	$56, %rsp
	.seh_stackalloc	56
	.cfi_def_cfa_offset 80
	leaq	128(%rsp), %rbp
	.seh_setframe	%rbp, 128
	.cfi_def_cfa 6, -48
	.seh_endprologue
	movq	%rcx, -48(%rbp)
	movq	%rdx, -40(%rbp)
	movq	%r8, -32(%rbp)
	movq	%r9, -24(%rbp)
	.loc 1 348 53
	leaq	-40(%rbp), %rax
	movq	%rax, -96(%rbp)
	.loc 1 349 30
	movq	-96(%rbp), %rbx
	movl	$1, %ecx
	movq	__imp___acrt_iob_func(%rip), %rax
	call	*%rax
.LVL0:
	movq	%rbx, %r8
	movq	-48(%rbp), %rdx
	movq	%rax, %rcx
	call	__mingw_vfprintf
	movl	%eax, -84(%rbp)
	.loc 1 351 10
	movl	-84(%rbp), %eax
	.loc 1 352 1
	addq	$56, %rsp
	popq	%rbx
	.cfi_restore 3
	popq	%rbp
	.cfi_restore 6
	.cfi_def_cfa 7, -40
	ret
	.cfi_endproc
.LFE8:
	.seh_endproc
	.section	.text$_ZN2ps5pcall6ServerC1EPKNS0_5pcallE,"x"
	.linkonce discard
	.align 2
	.globl	_ZN2ps5pcall6ServerC1EPKNS0_5pcallE
	.def	_ZN2ps5pcall6ServerC1EPKNS0_5pcallE;	.scl	2;	.type	32;	.endef
	.seh_proc	_ZN2ps5pcall6ServerC1EPKNS0_5pcallE
_ZN2ps5pcall6ServerC1EPKNS0_5pcallE:
.LFB60:
	.file 2 "D:/Code-Lib/mmcar/controller/Modules/pcode/include/pcall_class.h"
	.loc 2 132 5
	.cfi_startproc
	pushq	%rbp
	.seh_pushreg	%rbp
	.cfi_def_cfa_offset 16
	.cfi_offset 6, -16
	movq	%rsp, %rbp
	.seh_setframe	%rbp, 0
	.cfi_def_cfa_register 6
	.seh_endprologue
	movq	%rcx, 16(%rbp)
	movq	%rdx, 24(%rbp)
.LBB2:
	.loc 2 132 37
	movq	16(%rbp), %rax
	movq	24(%rbp), %rdx
	movq	%rdx, (%rax)
.LBE2:
	.loc 2 132 40
	nop
	popq	%rbp
	.cfi_restore 6
	.cfi_def_cfa 7, 8
	ret
	.cfi_endproc
.LFE60:
	.seh_endproc
	.section	.text$_ZN2ps5pcall6Server5parseEPKhi,"x"
	.linkonce discard
	.align 2
	.globl	_ZN2ps5pcall6Server5parseEPKhi
	.def	_ZN2ps5pcall6Server5parseEPKhi;	.scl	2;	.type	32;	.endef
	.seh_proc	_ZN2ps5pcall6Server5parseEPKhi
_ZN2ps5pcall6Server5parseEPKhi:
.LFB61:
	.loc 2 133 10
	.cfi_startproc
	pushq	%rbp
	.seh_pushreg	%rbp
	.cfi_def_cfa_offset 16
	.cfi_offset 6, -16
	movq	%rsp, %rbp
	.seh_setframe	%rbp, 0
	.cfi_def_cfa_register 6
	subq	$48, %rsp
	.seh_stackalloc	48
	.seh_endprologue
	movq	%rcx, 16(%rbp)
	movq	%rdx, 24(%rbp)
	movl	%r8d, 32(%rbp)
	.loc 2 134 21
	movq	24(%rbp), %rax
	movl	(%rax), %eax
	movl	%eax, -4(%rbp)
	.loc 2 135 9
	cmpl	$0, -4(%rbp)
	je	.L5
	.loc 2 137 17
	addq	$4, 24(%rbp)
	.loc 2 138 20
	movl	32(%rbp), %eax
	subl	$4, %eax
	movl	%eax, 32(%rbp)
	.loc 2 140 13
	movq	16(%rbp), %rax
	movq	(%rax), %rdx
	.loc 2 140 22
	movl	-4(%rbp), %eax
	subl	$1, %eax
	movl	%eax, %eax
	.loc 2 140 24
	salq	$3, %rax
	addq	%rdx, %rax
	.loc 2 140 26
	movq	(%rax), %rax
	.loc 2 140 29
	movl	32(%rbp), %edx
	movq	24(%rbp), %rcx
	call	*%rax
.LVL1:
	.loc 2 141 20
	movl	$1, %eax
	jmp	.L6
.L5:
	.loc 2 143 16
	movl	$0, %eax
.L6:
	.loc 2 144 5
	addq	$48, %rsp
	popq	%rbp
	.cfi_restore 6
	.cfi_def_cfa 7, 8
	ret
	.cfi_endproc
.LFE61:
	.seh_endproc
	.text
	.def	_ZN12_GLOBAL__N_112__pcall_moveEPKhi;	.scl	3;	.type	32;	.endef
	.seh_proc	_ZN12_GLOBAL__N_112__pcall_moveEPKhi
_ZN12_GLOBAL__N_112__pcall_moveEPKhi:
.LFB62:
	.file 3 "D:/Code-Lib/mmcar/controller/Modules/pcode/demo/table.h"
	.loc 3 24 56
	.cfi_startproc
	pushq	%rbp
	.seh_pushreg	%rbp
	.cfi_def_cfa_offset 16
	.cfi_offset 6, -16
	movq	%rsp, %rbp
	.seh_setframe	%rbp, 0
	.cfi_def_cfa_register 6
	subq	$48, %rsp
	.seh_stackalloc	48
	.seh_endprologue
	movq	%rcx, 16(%rbp)
	movl	%edx, 24(%rbp)
	.loc 3 24 69
	movl	24(%rbp), %eax
	cltq
	.loc 3 24 58
	cmpq	$3, %rax
	ja	.L8
	.loc 3 24 103 discriminator 1
	movl	$0, %eax
	jmp	.L10
.L8:
	.loc 3 24 128 discriminator 2
	movq	16(%rbp), %rax
	movl	(%rax), %eax
	movl	%eax, -4(%rbp)
	.loc 3 24 163 discriminator 2
	addq	$4, 16(%rbp)
	.loc 3 24 185 discriminator 2
	movl	-4(%rbp), %eax
	movd	%eax, %xmm0
	call	_Z4movef
	.loc 3 24 200 discriminator 2
	movl	$1, %eax
.L10:
	.loc 3 24 206 discriminator 1
	addq	$48, %rsp
	popq	%rbp
	.cfi_restore 6
	.cfi_def_cfa 7, 8
	ret
	.cfi_endproc
.LFE62:
	.seh_endproc
	.def	_ZN12_GLOBAL__N_118__pcall_arm_x_moveEPKhi;	.scl	3;	.type	32;	.endef
	.seh_proc	_ZN12_GLOBAL__N_118__pcall_arm_x_moveEPKhi
_ZN12_GLOBAL__N_118__pcall_arm_x_moveEPKhi:
.LFB63:
	.loc 3 25 62
	.cfi_startproc
	pushq	%rbp
	.seh_pushreg	%rbp
	.cfi_def_cfa_offset 16
	.cfi_offset 6, -16
	movq	%rsp, %rbp
	.seh_setframe	%rbp, 0
	.cfi_def_cfa_register 6
	subq	$48, %rsp
	.seh_stackalloc	48
	.seh_endprologue
	movq	%rcx, 16(%rbp)
	movl	%edx, 24(%rbp)
	.loc 3 25 75
	movl	24(%rbp), %eax
	cltq
	.loc 3 25 64
	cmpq	$7, %rax
	ja	.L12
	.loc 3 25 151 discriminator 1
	movl	$0, %eax
	jmp	.L14
.L12:
	.loc 3 25 176 discriminator 2
	movq	16(%rbp), %rax
	movl	(%rax), %eax
	movl	%eax, -4(%rbp)
	.loc 3 25 211 discriminator 2
	addq	$4, 16(%rbp)
	.loc 3 25 250 discriminator 2
	movq	16(%rbp), %rax
	movzwl	(%rax), %eax
	movw	%ax, -6(%rbp)
	.loc 3 25 288 discriminator 2
	addq	$2, 16(%rbp)
	.loc 3 25 330 discriminator 2
	movq	16(%rbp), %rax
	movzwl	(%rax), %eax
	movw	%ax, -8(%rbp)
	.loc 3 25 368 discriminator 2
	addq	$2, 16(%rbp)
	.loc 3 25 399 discriminator 2
	movzwl	-8(%rbp), %eax
	movzbl	%al, %edx
	movzwl	-6(%rbp), %eax
	movzwl	%ax, %eax
	movl	-4(%rbp), %ecx
	movl	%edx, %r8d
	movl	%eax, %edx
	movd	%ecx, %xmm0
	call	_Z10arm_x_movefth
	.loc 3 25 426 discriminator 2
	movl	$1, %eax
.L14:
	.loc 3 25 432 discriminator 1
	addq	$48, %rsp
	popq	%rbp
	.cfi_restore 6
	.cfi_def_cfa 7, 8
	ret
	.cfi_endproc
.LFE63:
	.seh_endproc
	.def	_ZN12_GLOBAL__N_118__pcall_arm_z_moveEPKhi;	.scl	3;	.type	32;	.endef
	.seh_proc	_ZN12_GLOBAL__N_118__pcall_arm_z_moveEPKhi
_ZN12_GLOBAL__N_118__pcall_arm_z_moveEPKhi:
.LFB64:
	.loc 3 26 62
	.cfi_startproc
	pushq	%rbp
	.seh_pushreg	%rbp
	.cfi_def_cfa_offset 16
	.cfi_offset 6, -16
	movq	%rsp, %rbp
	.seh_setframe	%rbp, 0
	.cfi_def_cfa_register 6
	subq	$48, %rsp
	.seh_stackalloc	48
	.seh_endprologue
	movq	%rcx, 16(%rbp)
	movl	%edx, 24(%rbp)
	.loc 3 26 75
	movl	24(%rbp), %eax
	cltq
	.loc 3 26 64
	cmpq	$6, %rax
	ja	.L16
	.loc 3 26 150 discriminator 1
	movl	$0, %eax
	jmp	.L18
.L16:
	.loc 3 26 175 discriminator 2
	movq	16(%rbp), %rax
	movl	(%rax), %eax
	movl	%eax, -4(%rbp)
	.loc 3 26 210 discriminator 2
	addq	$4, 16(%rbp)
	.loc 3 26 249 discriminator 2
	movq	16(%rbp), %rax
	movzwl	(%rax), %eax
	movw	%ax, -6(%rbp)
	.loc 3 26 287 discriminator 2
	addq	$2, 16(%rbp)
	.loc 3 26 328 discriminator 2
	movq	16(%rbp), %rax
	movzbl	(%rax), %eax
	movb	%al, -7(%rbp)
	.loc 3 26 365 discriminator 2
	addq	$1, 16(%rbp)
	.loc 3 26 395 discriminator 2
	movzbl	-7(%rbp), %eax
	movzbl	%al, %edx
	movzwl	-6(%rbp), %eax
	movzwl	%ax, %eax
	movl	-4(%rbp), %ecx
	movl	%edx, %r8d
	movl	%eax, %edx
	movd	%ecx, %xmm0
	call	_Z10arm_z_movefth
	.loc 3 26 422 discriminator 2
	movl	$1, %eax
.L18:
	.loc 3 26 428 discriminator 1
	addq	$48, %rsp
	popq	%rbp
	.cfi_restore 6
	.cfi_def_cfa 7, 8
	ret
	.cfi_endproc
.LFE64:
	.seh_endproc
	.def	_ZN12_GLOBAL__N_118__pcall_arm_r_moveEPKhi;	.scl	3;	.type	32;	.endef
	.seh_proc	_ZN12_GLOBAL__N_118__pcall_arm_r_moveEPKhi
_ZN12_GLOBAL__N_118__pcall_arm_r_moveEPKhi:
.LFB65:
	.loc 3 27 62
	.cfi_startproc
	pushq	%rbp
	.seh_pushreg	%rbp
	.cfi_def_cfa_offset 16
	.cfi_offset 6, -16
	movq	%rsp, %rbp
	.seh_setframe	%rbp, 0
	.cfi_def_cfa_register 6
	subq	$48, %rsp
	.seh_stackalloc	48
	.seh_endprologue
	movq	%rcx, 16(%rbp)
	movl	%edx, 24(%rbp)
	.loc 3 27 75
	movl	24(%rbp), %eax
	cltq
	.loc 3 27 64
	cmpq	$6, %rax
	ja	.L20
	.loc 3 27 150 discriminator 1
	movl	$0, %eax
	jmp	.L22
.L20:
	.loc 3 27 175 discriminator 2
	movq	16(%rbp), %rax
	movl	(%rax), %eax
	movl	%eax, -4(%rbp)
	.loc 3 27 210 discriminator 2
	addq	$4, 16(%rbp)
	.loc 3 27 249 discriminator 2
	movq	16(%rbp), %rax
	movzwl	(%rax), %eax
	movw	%ax, -6(%rbp)
	.loc 3 27 287 discriminator 2
	addq	$2, 16(%rbp)
	.loc 3 27 328 discriminator 2
	movq	16(%rbp), %rax
	movzbl	(%rax), %eax
	movb	%al, -7(%rbp)
	.loc 3 27 365 discriminator 2
	addq	$1, 16(%rbp)
	.loc 3 27 395 discriminator 2
	movzbl	-7(%rbp), %eax
	movzbl	%al, %edx
	movzwl	-6(%rbp), %eax
	movzwl	%ax, %eax
	movl	-4(%rbp), %ecx
	movl	%edx, %r8d
	movl	%eax, %edx
	movd	%ecx, %xmm0
	call	_Z10arm_r_movefth
	.loc 3 27 422 discriminator 2
	movl	$1, %eax
.L22:
	.loc 3 27 428 discriminator 1
	addq	$48, %rsp
	popq	%rbp
	.cfi_restore 6
	.cfi_def_cfa 7, 8
	ret
	.cfi_endproc
.LFE65:
	.seh_endproc
	.data
	.align 32
_ZN12_GLOBAL__N_111PCALL_TABLEE:
	.quad	_ZN12_GLOBAL__N_112__pcall_moveEPKhi
	.quad	_ZN12_GLOBAL__N_118__pcall_arm_x_moveEPKhi
	.quad	_ZN12_GLOBAL__N_118__pcall_arm_z_moveEPKhi
	.quad	_ZN12_GLOBAL__N_118__pcall_arm_r_moveEPKhi
	.text
	.def	_ZN12_GLOBAL__N_110pcall_initEv;	.scl	3;	.type	32;	.endef
	.seh_proc	_ZN12_GLOBAL__N_110pcall_initEv
_ZN12_GLOBAL__N_110pcall_initEv:
.LFB66:
	.loc 3 40 35
	.cfi_startproc
	pushq	%rbp
	.seh_pushreg	%rbp
	.cfi_def_cfa_offset 16
	.cfi_offset 6, -16
	movq	%rsp, %rbp
	.seh_setframe	%rbp, 0
	.cfi_def_cfa_register 6
	subq	$48, %rsp
	.seh_stackalloc	48
	.seh_endprologue
	.loc 3 40 55
	leaq	-8(%rbp), %rax
	leaq	_ZN12_GLOBAL__N_111PCALL_TABLEE(%rip), %rdx
	movq	%rax, %rcx
	call	_ZN2ps5pcall6ServerC1EPKNS0_5pcallE
	.loc 3 40 74
	movq	-8(%rbp), %rax
	.loc 3 40 76
	addq	$48, %rsp
	popq	%rbp
	.cfi_restore 6
	.cfi_def_cfa 7, 8
	ret
	.cfi_endproc
.LFE66:
	.seh_endproc
	.section .rdata,"dr"
.LC0:
	.ascii "\345\211\215\350\277\233 dist = %f\12\0"
	.text
	.globl	_Z4movef
	.def	_Z4movef;	.scl	2;	.type	32;	.endef
	.seh_proc	_Z4movef
_Z4movef:
.LFB67:
	.file 4 "D:/Code-Lib/mmcar/controller/Modules/pcode/demo/test_server.cpp"
	.loc 4 15 1
	.cfi_startproc
	pushq	%rbp
	.seh_pushreg	%rbp
	.cfi_def_cfa_offset 16
	.cfi_offset 6, -16
	movq	%rsp, %rbp
	.seh_setframe	%rbp, 0
	.cfi_def_cfa_register 6
	subq	$32, %rsp
	.seh_stackalloc	32
	.seh_endprologue
	movss	%xmm0, 16(%rbp)
	.loc 4 16 11
	cvtss2sd	16(%rbp), %xmm0
	movq	%xmm0, %rax
	movq	%rax, %rdx
	movq	%rdx, %xmm1
	movq	%rax, %rdx
	leaq	.LC0(%rip), %rcx
	call	_Z6printfPKcz
	.loc 4 17 1
	nop
	addq	$32, %rsp
	popq	%rbp
	.cfi_restore 6
	.cfi_def_cfa 7, 8
	ret
	.cfi_endproc
.LFE67:
	.seh_endproc
	.section .rdata,"dr"
	.align 8
.LC1:
	.ascii "X\347\247\273\345\212\250 dist = %f, spd = %d, acc = %d\12\0"
	.text
	.globl	_Z10arm_x_movefth
	.def	_Z10arm_x_movefth;	.scl	2;	.type	32;	.endef
	.seh_proc	_Z10arm_x_movefth
_Z10arm_x_movefth:
.LFB68:
	.loc 4 20 1
	.cfi_startproc
	pushq	%rbp
	.seh_pushreg	%rbp
	.cfi_def_cfa_offset 16
	.cfi_offset 6, -16
	movq	%rsp, %rbp
	.seh_setframe	%rbp, 0
	.cfi_def_cfa_register 6
	subq	$32, %rsp
	.seh_stackalloc	32
	.seh_endprologue
	movss	%xmm0, 16(%rbp)
	movl	%edx, %eax
	movl	%r8d, %edx
	movw	%ax, 24(%rbp)
	movl	%edx, %eax
	movb	%al, 32(%rbp)
	.loc 4 21 11
	movzbl	32(%rbp), %edx
	movzwl	24(%rbp), %eax
	cvtss2sd	16(%rbp), %xmm0
	movq	%xmm0, %rcx
	movq	%rcx, %r8
	movq	%r8, %r10
	movl	%edx, %r9d
	movl	%eax, %r8d
	movq	%r10, %xmm1
	movq	%rcx, %rdx
	leaq	.LC1(%rip), %rcx
	call	_Z6printfPKcz
	.loc 4 22 1
	nop
	addq	$32, %rsp
	popq	%rbp
	.cfi_restore 6
	.cfi_def_cfa 7, 8
	ret
	.cfi_endproc
.LFE68:
	.seh_endproc
	.section .rdata,"dr"
	.align 8
.LC2:
	.ascii "Z\347\247\273\345\212\250 dist = %f, spd = %d, acc = %d\12\0"
	.text
	.globl	_Z10arm_z_movefth
	.def	_Z10arm_z_movefth;	.scl	2;	.type	32;	.endef
	.seh_proc	_Z10arm_z_movefth
_Z10arm_z_movefth:
.LFB69:
	.loc 4 25 1
	.cfi_startproc
	pushq	%rbp
	.seh_pushreg	%rbp
	.cfi_def_cfa_offset 16
	.cfi_offset 6, -16
	movq	%rsp, %rbp
	.seh_setframe	%rbp, 0
	.cfi_def_cfa_register 6
	subq	$32, %rsp
	.seh_stackalloc	32
	.seh_endprologue
	movss	%xmm0, 16(%rbp)
	movl	%edx, %eax
	movl	%r8d, %edx
	movw	%ax, 24(%rbp)
	movl	%edx, %eax
	movb	%al, 32(%rbp)
	.loc 4 26 11
	movzbl	32(%rbp), %edx
	movzwl	24(%rbp), %eax
	cvtss2sd	16(%rbp), %xmm0
	movq	%xmm0, %rcx
	movq	%rcx, %r8
	movq	%r8, %r10
	movl	%edx, %r9d
	movl	%eax, %r8d
	movq	%r10, %xmm1
	movq	%rcx, %rdx
	leaq	.LC2(%rip), %rcx
	call	_Z6printfPKcz
	.loc 4 27 1
	nop
	addq	$32, %rsp
	popq	%rbp
	.cfi_restore 6
	.cfi_def_cfa 7, 8
	ret
	.cfi_endproc
.LFE69:
	.seh_endproc
	.section .rdata,"dr"
	.align 8
.LC3:
	.ascii "R\346\227\213\350\275\254 dist = %f, spd = %d, acc = %d\12\0"
	.text
	.globl	_Z10arm_r_movefth
	.def	_Z10arm_r_movefth;	.scl	2;	.type	32;	.endef
	.seh_proc	_Z10arm_r_movefth
_Z10arm_r_movefth:
.LFB70:
	.loc 4 30 1
	.cfi_startproc
	pushq	%rbp
	.seh_pushreg	%rbp
	.cfi_def_cfa_offset 16
	.cfi_offset 6, -16
	movq	%rsp, %rbp
	.seh_setframe	%rbp, 0
	.cfi_def_cfa_register 6
	subq	$32, %rsp
	.seh_stackalloc	32
	.seh_endprologue
	movss	%xmm0, 16(%rbp)
	movl	%edx, %eax
	movl	%r8d, %edx
	movw	%ax, 24(%rbp)
	movl	%edx, %eax
	movb	%al, 32(%rbp)
	.loc 4 31 11
	movzbl	32(%rbp), %edx
	movzwl	24(%rbp), %eax
	cvtss2sd	16(%rbp), %xmm0
	movq	%xmm0, %rcx
	movq	%rcx, %r8
	movq	%r8, %r10
	movl	%edx, %r9d
	movl	%eax, %r8d
	movq	%r10, %xmm1
	movq	%rcx, %rdx
	leaq	.LC3(%rip), %rcx
	call	_Z6printfPKcz
	.loc 4 32 1
	nop
	addq	$32, %rsp
	popq	%rbp
	.cfi_restore 6
	.cfi_def_cfa 7, 8
	ret
	.cfi_endproc
.LFE70:
	.seh_endproc
	.globl	_Z11test_serverPKh
	.def	_Z11test_serverPKh;	.scl	2;	.type	32;	.endef
	.seh_proc	_Z11test_serverPKh
_Z11test_serverPKh:
.LFB71:
	.loc 4 39 1
	.cfi_startproc
	pushq	%rbp
	.seh_pushreg	%rbp
	.cfi_def_cfa_offset 16
	.cfi_offset 6, -16
	movq	%rsp, %rbp
	.seh_setframe	%rbp, 0
	.cfi_def_cfa_register 6
	subq	$48, %rsp
	.seh_stackalloc	48
	.seh_endprologue
	movq	%rcx, 16(%rbp)
	.loc 4 40 30
	call	_ZN12_GLOBAL__N_110pcall_initEv
	movq	%rax, -8(%rbp)
	.loc 4 41 17
	leaq	-8(%rbp), %rax
	movl	$120, %r8d
	movq	16(%rbp), %rdx
	movq	%rax, %rcx
	call	_ZN2ps5pcall6Server5parseEPKhi
	.loc 4 42 1
	nop
	addq	$48, %rsp
	popq	%rbp
	.cfi_restore 6
	.cfi_def_cfa 7, 8
	ret
	.cfi_endproc
.LFE71:
	.seh_endproc
.Letext0:
	.file 5 "E:/Code_Lib/compilers/mingw64/lib/gcc/x86_64-w64-mingw32/8.1.0/include/c++/cstdint"
	.file 6 "E:/Code_Lib/compilers/mingw64/lib/gcc/x86_64-w64-mingw32/8.1.0/include/c++/cstdio"
	.file 7 "E:/Code_Lib/compilers/mingw64/lib/gcc/x86_64-w64-mingw32/8.1.0/include/c++/cstring"
	.file 8 "E:/Code_Lib/compilers/mingw64/lib/gcc/x86_64-w64-mingw32/8.1.0/include/c++/x86_64-w64-mingw32/bits/c++config.h"
	.file 9 "E:/Code_Lib/compilers/mingw64/x86_64-w64-mingw32/include/crtdefs.h"
	.file 10 "E:/Code_Lib/compilers/mingw64/x86_64-w64-mingw32/include/stdint.h"
	.file 11 "E:/Code_Lib/compilers/mingw64/x86_64-w64-mingw32/include/string.h"
	.file 12 "<built-in>"
	.file 13 "D:/Code-Lib/mmcar/controller/Modules/pcode/include/pcall_config.h"